---
triple:          'arm64-apple-darwin'
binary-path:     '/Users/amtouti/Documents/SFM/src/main'
relocations:
  - { offsetInCU: 0xAD30, offset: 0xAD30, size: 0x8, addend: 0x0, symName: __ZNSt3__124__put_character_sequenceB8ue170006IcNS_11char_traitsIcEEEERNS_13basic_ostreamIT_T0_EES7_PKS4_m, symObjAddr: 0x7C34, symBinAddr: 0x10000A52C, symSize: 0x1EC }
  - { offsetInCU: 0x1A8FB, offset: 0x1A8FB, size: 0x8, addend: 0x0, symName: __ZNSt3__14endlB8ue170006IcNS_11char_traitsIcEEEERNS_13basic_ostreamIT_T0_EES7_, symObjAddr: 0x9F8, symBinAddr: 0x1000032F0, symSize: 0x58 }
  - { offsetInCU: 0x1B14C, offset: 0x1B14C, size: 0x8, addend: 0x0, symName: __ZNSt3__1lsB8ue170006INS_11char_traitsIcEEEERNS_13basic_ostreamIcT_EES6_PKc, symObjAddr: 0x11B8, symBinAddr: 0x100003AB0, symSize: 0x48 }
  - { offsetInCU: 0x1B192, offset: 0x1B192, size: 0x8, addend: 0x0, symName: __ZNSt3__1lsB8ue170006IcNS_11char_traitsIcEENS_9allocatorIcEEEERNS_13basic_ostreamIT_T0_EES9_RKNS_12basic_stringIS6_S7_T1_EE, symObjAddr: 0x1200, symBinAddr: 0x100003AF8, symSize: 0x4C }
  - { offsetInCU: 0x1B1F5, offset: 0x1B1F5, size: 0x8, addend: 0x0, symName: __ZNSt3__1neB8ue170006IP14CorrespondenceEEbRKNS_11__wrap_iterIT_EES7_, symObjAddr: 0x689C, symBinAddr: 0x100009194, symSize: 0x34 }
  - { offsetInCU: 0x1B238, offset: 0x1B238, size: 0x8, addend: 0x0, symName: __ZNSt3__1neB8ue170006IP9DataPointEEbRKNS_11__wrap_iterIT_EES7_, symObjAddr: 0x6A40, symBinAddr: 0x100009338, symSize: 0x34 }
  - { offsetInCU: 0x1B27B, offset: 0x1B27B, size: 0x8, addend: 0x0, symName: __ZNSt3__1eqB8ue170006IP14CorrespondenceEEbRKNS_11__wrap_iterIT_EES7_, symObjAddr: 0x76B0, symBinAddr: 0x100009FA8, symSize: 0x48 }
  - { offsetInCU: 0x1B2BE, offset: 0x1B2BE, size: 0x8, addend: 0x0, symName: __ZNSt3__1eqB8ue170006IP9DataPointEEbRKNS_11__wrap_iterIT_EES7_, symObjAddr: 0x7AC0, symBinAddr: 0x10000A3B8, symSize: 0x48 }
  - { offsetInCU: 0x1B301, offset: 0x1B301, size: 0x8, addend: 0x0, symName: __ZNSt3__118__constexpr_strlenB8ue170006EPKc, symObjAddr: 0x7C10, symBinAddr: 0x10000A508, symSize: 0x24 }
  - { offsetInCU: 0x1B32D, offset: 0x1B32D, size: 0x8, addend: 0x0, symName: __ZNSt3__116__pad_and_outputB8ue170006IcNS_11char_traitsIcEEEENS_19ostreambuf_iteratorIT_T0_EES6_PKS4_S8_S8_RNS_8ios_baseES4_, symObjAddr: 0x7E3C, symBinAddr: 0x10000A734, symSize: 0x240 }
  - { offsetInCU: 0x1B3FC, offset: 0x1B3FC, size: 0x8, addend: 0x0, symName: __ZNSt3__112__to_addressB8ue170006IKcEEPT_S3_, symObjAddr: 0x82AC, symBinAddr: 0x10000ABA4, symSize: 0x14 }
  - { offsetInCU: 0x1B464, offset: 0x1B464, size: 0x8, addend: 0x0, symName: __ZNSt3__19use_facetB8ue170006INS_5ctypeIcEEEERKT_RKNS_6localeE, symObjAddr: 0x852C, symBinAddr: 0x10000AE24, symSize: 0x2C }
  - { offsetInCU: 0x1B931, offset: 0x1B931, size: 0x8, addend: 0x0, symName: __ZNSt3__112__to_addressB8ue170006INS_4pairIiiEEEEPT_S4_, symObjAddr: 0x8A14, symBinAddr: 0x10000B30C, symSize: 0x14 }
  - { offsetInCU: 0x1B966, offset: 0x1B966, size: 0x8, addend: 0x0, symName: __ZNSt3__119__libcpp_deallocateB8ue170006EPvmm, symObjAddr: 0x8AEC, symBinAddr: 0x10000B3E4, symSize: 0x30 }
  - { offsetInCU: 0x1B9AE, offset: 0x1B9AE, size: 0x8, addend: 0x0, symName: __ZNSt3__127__do_deallocate_handle_sizeB8ue170006IJEEEvPvmDpT_, symObjAddr: 0x8B1C, symBinAddr: 0x10000B414, symSize: 0x28 }
  - { offsetInCU: 0x1B9EC, offset: 0x1B9EC, size: 0x8, addend: 0x0, symName: __ZNSt3__124__libcpp_operator_deleteB8ue170006IJPvEEEvDpT_, symObjAddr: 0x8B44, symBinAddr: 0x10000B43C, symSize: 0x24 }
  - { offsetInCU: 0x1BA21, offset: 0x1BA21, size: 0x8, addend: 0x0, symName: __ZNSt3__122__make_exception_guardB8ue170006INS_6vectorINS_4pairIiiEENS_9allocatorIS3_EEE16__destroy_vectorEEENS_28__exception_guard_exceptionsIT_EES9_, symObjAddr: 0x9090, symBinAddr: 0x10000B988, symSize: 0x40 }
  - { offsetInCU: 0x1BA56, offset: 0x1BA56, size: 0x8, addend: 0x0, symName: __ZNSt3__119__allocate_at_leastB8ue170006INS_9allocatorINS_4pairIiiEEEEEENS_19__allocation_resultINS_16allocator_traitsIT_E7pointerEEERS7_m, symObjAddr: 0x943C, symBinAddr: 0x10000BD34, symSize: 0x40 }
  - { offsetInCU: 0x1BA99, offset: 0x1BA99, size: 0x8, addend: 0x0, symName: __ZNSt3__13minB8ue170006ImEERKT_S3_S3_, symObjAddr: 0x9550, symBinAddr: 0x10000BE48, symSize: 0x2C }
  - { offsetInCU: 0x1BCDD, offset: 0x1BCDD, size: 0x8, addend: 0x0, symName: __ZNSt3__13minB8ue170006ImNS_6__lessIvvEEEERKT_S5_S5_T0_, symObjAddr: 0x95DC, symBinAddr: 0x10000BED4, symSize: 0x54 }
  - { offsetInCU: 0x1BD7C, offset: 0x1BD7C, size: 0x8, addend: 0x0, symName: __ZNSt3__120__throw_length_errorB8ue170006EPKc, symObjAddr: 0x96B8, symBinAddr: 0x10000BFB0, symSize: 0x64 }
  - { offsetInCU: 0x1BDA6, offset: 0x1BDA6, size: 0x8, addend: 0x0, symName: __ZNSt3__117__libcpp_allocateB8ue170006Emm, symObjAddr: 0x9828, symBinAddr: 0x10000C120, symSize: 0x28 }
  - { offsetInCU: 0x1BDE3, offset: 0x1BDE3, size: 0x8, addend: 0x0, symName: __ZNSt3__121__libcpp_operator_newB8ue170006IJmEEEPvDpT_, symObjAddr: 0x9850, symBinAddr: 0x10000C148, symSize: 0x24 }
  - { offsetInCU: 0x1BE1C, offset: 0x1BE1C, size: 0x8, addend: 0x0, symName: __ZNSt3__130__uninitialized_allocator_copyB8ue170006INS_9allocatorINS_4pairIiiEEEEPKS3_S6_PS3_EET2_RT_T0_T1_S8_, symObjAddr: 0x98E8, symBinAddr: 0x10000C1E0, symSize: 0x80 }
  - { offsetInCU: 0x1BEB9, offset: 0x1BEB9, size: 0x8, addend: 0x0, symName: __ZNSt3__114__unwrap_rangeB8ue170006IPKNS_4pairIiiEES4_EENS1_IT0_S5_EET_S7_, symObjAddr: 0x99D8, symBinAddr: 0x10000C2D0, symSize: 0x60 }
  - { offsetInCU: 0x1BF05, offset: 0x1BF05, size: 0x8, addend: 0x0, symName: __ZNSt3__135__uninitialized_allocator_copy_implB8ue170006INS_9allocatorINS_4pairIiiEEEEPKS3_S6_PS3_EET2_RT_T0_T1_S8_, symObjAddr: 0x9A38, symBinAddr: 0x10000C330, symSize: 0xF4 }
  - { offsetInCU: 0x1BFA3, offset: 0x1BFA3, size: 0x8, addend: 0x0, symName: __ZNSt3__113__unwrap_iterB8ue170006IPNS_4pairIiiEENS_18__unwrap_iter_implIS3_Lb1EEELi0EEEDTclsrT0_8__unwrapclsr3stdE7declvalIT_EEEES7_, symObjAddr: 0x9B2C, symBinAddr: 0x10000C424, symSize: 0x24 }
  - { offsetInCU: 0x1BFE7, offset: 0x1BFE7, size: 0x8, addend: 0x0, symName: __ZNSt3__113__rewrap_iterB8ue170006IPNS_4pairIiiEES3_NS_18__unwrap_iter_implIS3_Lb1EEEEET_S6_T0_, symObjAddr: 0x9B50, symBinAddr: 0x10000C448, symSize: 0x3C }
  - { offsetInCU: 0x1C03C, offset: 0x1C03C, size: 0x8, addend: 0x0, symName: __ZNSt3__19make_pairB8ue170006IPKNS_4pairIiiEES4_EENS1_INS_18__unwrap_ref_decayIT_E4typeENS5_IT0_E4typeEEEOS6_OS9_, symObjAddr: 0x9B8C, symBinAddr: 0x10000C484, symSize: 0x38 }
  - { offsetInCU: 0x1C08B, offset: 0x1C08B, size: 0x8, addend: 0x0, symName: __ZNSt3__113__unwrap_iterB8ue170006IPKNS_4pairIiiEENS_18__unwrap_iter_implIS4_Lb1EEELi0EEEDTclsrT0_8__unwrapclsr3stdE7declvalIT_EEEES8_, symObjAddr: 0x9BC4, symBinAddr: 0x10000C4BC, symSize: 0x24 }
  - { offsetInCU: 0x1C1F6, offset: 0x1C1F6, size: 0x8, addend: 0x0, symName: __ZNSt3__112__to_addressB8ue170006IKNS_4pairIiiEEEEPT_S5_, symObjAddr: 0x9C7C, symBinAddr: 0x10000C574, symSize: 0x14 }
  - { offsetInCU: 0x1C22B, offset: 0x1C22B, size: 0x8, addend: 0x0, symName: __ZNSt3__122__make_exception_guardB8ue170006INS_29_AllocatorDestroyRangeReverseINS_9allocatorINS_4pairIiiEEEEPS4_EEEENS_28__exception_guard_exceptionsIT_EES9_, symObjAddr: 0x9C90, symBinAddr: 0x10000C588, symSize: 0x4C }
  - { offsetInCU: 0x1C261, offset: 0x1C261, size: 0x8, addend: 0x0, symName: __ZNSt3__119__allocator_destroyB8ue170006INS_9allocatorINS_4pairIiiEEEENS_16reverse_iteratorIPS3_EES7_EEvRT_T0_T1_, symObjAddr: 0x9F18, symBinAddr: 0x10000C810, symSize: 0x70 }
  - { offsetInCU: 0x1C2C4, offset: 0x1C2C4, size: 0x8, addend: 0x0, symName: __ZNSt3__1neB8ue170006IPNS_4pairIiiEES3_EEbRKNS_16reverse_iteratorIT_EERKNS4_IT0_EE, symObjAddr: 0x9FBC, symBinAddr: 0x10000C8B4, symSize: 0x48 }
  - { offsetInCU: 0x1C310, offset: 0x1C310, size: 0x8, addend: 0x0, symName: __ZNSt3__112__to_addressB8ue170006INS_16reverse_iteratorIPNS_4pairIiiEEEEvEEu7__decayIDTclsr19__to_address_helperIT_EE6__callclsr3stdE7declvalIRKS6_EEEEES8_, symObjAddr: 0xA004, symBinAddr: 0x10000C8FC, symSize: 0x24 }
  - { offsetInCU: 0x1C3C2, offset: 0x1C3C2, size: 0x8, addend: 0x0, symName: __ZNSt3__112__to_addressB8ue170006IP19MouseCallbackParamsEEPT_S4_, symObjAddr: 0xA6F0, symBinAddr: 0x10000CFE8, symSize: 0x14 }
  - { offsetInCU: 0x1C3F7, offset: 0x1C3F7, size: 0x8, addend: 0x0, symName: __ZNSt3__112__to_addressB8ue170006IN2cv7Point3_IfEEEEPT_S5_, symObjAddr: 0xAD28, symBinAddr: 0x10000D620, symSize: 0x14 }
  - { offsetInCU: 0x1C42C, offset: 0x1C42C, size: 0x8, addend: 0x0, symName: __ZNSt3__112__to_addressB8ue170006I14CorrespondenceEEPT_S3_, symObjAddr: 0xB348, symBinAddr: 0x10000DC40, symSize: 0x14 }
  - { offsetInCU: 0x1C461, offset: 0x1C461, size: 0x8, addend: 0x0, symName: __ZNSt3__112__to_addressB8ue170006IN2cv6Point_IiEEEEPT_S5_, symObjAddr: 0xB9C0, symBinAddr: 0x10000E2B8, symSize: 0x14 }
  - { offsetInCU: 0x1C496, offset: 0x1C496, size: 0x8, addend: 0x0, symName: __ZNSt3__13maxB8ue170006ImEERKT_S3_S3_, symObjAddr: 0xC154, symBinAddr: 0x10000EA4C, symSize: 0x2C }
  - { offsetInCU: 0x1C4D9, offset: 0x1C4D9, size: 0x8, addend: 0x0, symName: __ZNSt3__13maxB8ue170006ImNS_6__lessIvvEEEERKT_S5_S5_T0_, symObjAddr: 0xC218, symBinAddr: 0x10000EB10, symSize: 0x54 }
  - { offsetInCU: 0x1C533, offset: 0x1C533, size: 0x8, addend: 0x0, symName: __ZNSt3__119__allocate_at_leastB8ue170006INS_9allocatorIN2cv6Point_IiEEEEEENS_19__allocation_resultINS_16allocator_traitsIT_E7pointerEEERS8_m, symObjAddr: 0xC37C, symBinAddr: 0x10000EC74, symSize: 0x40 }
  - { offsetInCU: 0x1C576, offset: 0x1C576, size: 0x8, addend: 0x0, symName: __ZNSt3__142__uninitialized_allocator_move_if_noexceptB8ue170006INS_9allocatorIN2cv6Point_IiEEEENS_16reverse_iteratorIPS4_EES8_S4_vEET1_RT_T0_SC_S9_, symObjAddr: 0xC530, symBinAddr: 0x10000EE28, symSize: 0x78 }
  - { offsetInCU: 0x1C5F3, offset: 0x1C5F3, size: 0x8, addend: 0x0, symName: __ZNSt3__14swapB8ue170006IPN2cv6Point_IiEEEENS_9enable_ifIXaasr21is_move_constructibleIT_EE5valuesr18is_move_assignableIS6_EE5valueEvE4typeERS6_S9_, symObjAddr: 0xC5F4, symBinAddr: 0x10000EEEC, symSize: 0x3C }
  - { offsetInCU: 0x1C644, offset: 0x1C644, size: 0x8, addend: 0x0, symName: __ZNSt3__14moveB8ue170006INS_16reverse_iteratorIPN2cv6Point_IiEEEES6_EET0_T_S8_S7_, symObjAddr: 0xC6DC, symBinAddr: 0x10000EFD4, symSize: 0x78 }
  - { offsetInCU: 0x1C69E, offset: 0x1C69E, size: 0x8, addend: 0x0, symName: __ZNSt3__16__moveB8ue170006INS_17_ClassicAlgPolicyENS_16reverse_iteratorIPN2cv6Point_IiEEEES7_S7_EENS_4pairIT0_T2_EES9_T1_SA_, symObjAddr: 0xC754, symBinAddr: 0x10000F04C, symSize: 0x64 }
  - { offsetInCU: 0x1C70A, offset: 0x1C70A, size: 0x8, addend: 0x0, symName: __ZNSt3__123__dispatch_copy_or_moveB8ue170006INS_17_ClassicAlgPolicyENS_11__move_loopIS1_EENS_14__move_trivialENS_16reverse_iteratorIPN2cv6Point_IiEEEESA_SA_EENS_4pairIT2_T4_EESC_T3_SD_, symObjAddr: 0xC7B8, symBinAddr: 0x10000F0B0, symSize: 0x64 }
  - { offsetInCU: 0x1C788, offset: 0x1C788, size: 0x8, addend: 0x0, symName: __ZNSt3__121__unwrap_and_dispatchB8ue170006INS_10__overloadINS_11__move_loopINS_17_ClassicAlgPolicyEEENS_14__move_trivialEEENS_16reverse_iteratorIPN2cv6Point_IiEEEESC_SC_Li0EEENS_4pairIT0_T2_EESE_T1_SF_, symObjAddr: 0xC81C, symBinAddr: 0x10000F114, symSize: 0x12C }
  - { offsetInCU: 0x1C818, offset: 0x1C818, size: 0x8, addend: 0x0, symName: __ZNSt3__114__unwrap_rangeB8ue170006INS_16reverse_iteratorIPN2cv6Point_IiEEEES6_EENS_4pairIT0_S8_EET_SA_, symObjAddr: 0xC948, symBinAddr: 0x10000F240, symSize: 0x84 }
  - { offsetInCU: 0x1CA11, offset: 0x1CA11, size: 0x8, addend: 0x0, symName: __ZNSt3__113__unwrap_iterB8ue170006INS_16reverse_iteratorIPN2cv6Point_IiEEEENS_18__unwrap_iter_implIS6_Lb0EEELi0EEEDTclsrT0_8__unwrapclsr3stdE7declvalIT_EEEESA_, symObjAddr: 0xCA6C, symBinAddr: 0x10000F364, symSize: 0x44 }
  - { offsetInCU: 0x1CA55, offset: 0x1CA55, size: 0x8, addend: 0x0, symName: __ZNSt3__19make_pairB8ue170006INS_16reverse_iteratorIPN2cv6Point_IiEEEES6_EENS_4pairINS_18__unwrap_ref_decayIT_E4typeENS8_IT0_E4typeEEEOS9_OSC_, symObjAddr: 0xCAB0, symBinAddr: 0x10000F3A8, symSize: 0x38 }
  - { offsetInCU: 0x1CAA4, offset: 0x1CAA4, size: 0x8, addend: 0x0, symName: __ZNSt3__114__rewrap_rangeB8ue170006INS_16reverse_iteratorIPN2cv6Point_IiEEEES6_EET_S7_T0_, symObjAddr: 0xCAE8, symBinAddr: 0x10000F3E0, symSize: 0x5C }
  - { offsetInCU: 0x1CAF0, offset: 0x1CAF0, size: 0x8, addend: 0x0, symName: __ZNSt3__113__rewrap_iterB8ue170006INS_16reverse_iteratorIPN2cv6Point_IiEEEES6_NS_18__unwrap_iter_implIS6_Lb0EEEEET_S9_T0_, symObjAddr: 0xCB44, symBinAddr: 0x10000F43C, symSize: 0x74 }
  - { offsetInCU: 0x1CB45, offset: 0x1CB45, size: 0x8, addend: 0x0, symName: __ZNSt3__1neB8ue170006IPN2cv6Point_IiEES4_EEbRKNS_16reverse_iteratorIT_EERKNS5_IT0_EE, symObjAddr: 0xCBB8, symBinAddr: 0x10000F4B0, symSize: 0x48 }
  - { offsetInCU: 0x1CCA9, offset: 0x1CCA9, size: 0x8, addend: 0x0, symName: __ZNSt3__112__to_addressB8ue170006IN2cv6Point_IdEEEEPT_S5_, symObjAddr: 0xD3F4, symBinAddr: 0x10000FCEC, symSize: 0x14 }
  - { offsetInCU: 0x1CCDE, offset: 0x1CCDE, size: 0x8, addend: 0x0, symName: __ZNSt3__119__allocate_at_leastB8ue170006INS_9allocatorIN2cv6Point_IdEEEEEENS_19__allocation_resultINS_16allocator_traitsIT_E7pointerEEERS8_m, symObjAddr: 0xDCAC, symBinAddr: 0x1000105A4, symSize: 0x40 }
  - { offsetInCU: 0x1CD21, offset: 0x1CD21, size: 0x8, addend: 0x0, symName: __ZNSt3__142__uninitialized_allocator_move_if_noexceptB8ue170006INS_9allocatorIN2cv6Point_IdEEEENS_16reverse_iteratorIPS4_EES8_S4_vEET1_RT_T0_SC_S9_, symObjAddr: 0xDE60, symBinAddr: 0x100010758, symSize: 0x78 }
  - { offsetInCU: 0x1CD9E, offset: 0x1CD9E, size: 0x8, addend: 0x0, symName: __ZNSt3__14swapB8ue170006IPN2cv6Point_IdEEEENS_9enable_ifIXaasr21is_move_constructibleIT_EE5valuesr18is_move_assignableIS6_EE5valueEvE4typeERS6_S9_, symObjAddr: 0xDF24, symBinAddr: 0x10001081C, symSize: 0x3C }
  - { offsetInCU: 0x1CDEF, offset: 0x1CDEF, size: 0x8, addend: 0x0, symName: __ZNSt3__14moveB8ue170006INS_16reverse_iteratorIPN2cv6Point_IdEEEES6_EET0_T_S8_S7_, symObjAddr: 0xE00C, symBinAddr: 0x100010904, symSize: 0x78 }
  - { offsetInCU: 0x1CE49, offset: 0x1CE49, size: 0x8, addend: 0x0, symName: __ZNSt3__16__moveB8ue170006INS_17_ClassicAlgPolicyENS_16reverse_iteratorIPN2cv6Point_IdEEEES7_S7_EENS_4pairIT0_T2_EES9_T1_SA_, symObjAddr: 0xE084, symBinAddr: 0x10001097C, symSize: 0x64 }
  - { offsetInCU: 0x1CEB5, offset: 0x1CEB5, size: 0x8, addend: 0x0, symName: __ZNSt3__123__dispatch_copy_or_moveB8ue170006INS_17_ClassicAlgPolicyENS_11__move_loopIS1_EENS_14__move_trivialENS_16reverse_iteratorIPN2cv6Point_IdEEEESA_SA_EENS_4pairIT2_T4_EESC_T3_SD_, symObjAddr: 0xE0E8, symBinAddr: 0x1000109E0, symSize: 0x64 }
  - { offsetInCU: 0x1CF33, offset: 0x1CF33, size: 0x8, addend: 0x0, symName: __ZNSt3__121__unwrap_and_dispatchB8ue170006INS_10__overloadINS_11__move_loopINS_17_ClassicAlgPolicyEEENS_14__move_trivialEEENS_16reverse_iteratorIPN2cv6Point_IdEEEESC_SC_Li0EEENS_4pairIT0_T2_EESE_T1_SF_, symObjAddr: 0xE14C, symBinAddr: 0x100010A44, symSize: 0x12C }
  - { offsetInCU: 0x1CFC3, offset: 0x1CFC3, size: 0x8, addend: 0x0, symName: __ZNSt3__114__unwrap_rangeB8ue170006INS_16reverse_iteratorIPN2cv6Point_IdEEEES6_EENS_4pairIT0_S8_EET_SA_, symObjAddr: 0xE278, symBinAddr: 0x100010B70, symSize: 0x84 }
  - { offsetInCU: 0x1D0E3, offset: 0x1D0E3, size: 0x8, addend: 0x0, symName: __ZNSt3__113__unwrap_iterB8ue170006INS_16reverse_iteratorIPN2cv6Point_IdEEEENS_18__unwrap_iter_implIS6_Lb0EEELi0EEEDTclsrT0_8__unwrapclsr3stdE7declvalIT_EEEESA_, symObjAddr: 0xE39C, symBinAddr: 0x100010C94, symSize: 0x44 }
  - { offsetInCU: 0x1D127, offset: 0x1D127, size: 0x8, addend: 0x0, symName: __ZNSt3__19make_pairB8ue170006INS_16reverse_iteratorIPN2cv6Point_IdEEEES6_EENS_4pairINS_18__unwrap_ref_decayIT_E4typeENS8_IT0_E4typeEEEOS9_OSC_, symObjAddr: 0xE3E0, symBinAddr: 0x100010CD8, symSize: 0x38 }
  - { offsetInCU: 0x1D176, offset: 0x1D176, size: 0x8, addend: 0x0, symName: __ZNSt3__114__rewrap_rangeB8ue170006INS_16reverse_iteratorIPN2cv6Point_IdEEEES6_EET_S7_T0_, symObjAddr: 0xE418, symBinAddr: 0x100010D10, symSize: 0x5C }
  - { offsetInCU: 0x1D1C2, offset: 0x1D1C2, size: 0x8, addend: 0x0, symName: __ZNSt3__113__rewrap_iterB8ue170006INS_16reverse_iteratorIPN2cv6Point_IdEEEES6_NS_18__unwrap_iter_implIS6_Lb0EEEEET_S9_T0_, symObjAddr: 0xE474, symBinAddr: 0x100010D6C, symSize: 0x74 }
  - { offsetInCU: 0x1D217, offset: 0x1D217, size: 0x8, addend: 0x0, symName: __ZNSt3__1neB8ue170006IPN2cv6Point_IdEES4_EEbRKNS_16reverse_iteratorIT_EERKNS5_IT0_EE, symObjAddr: 0xE4E8, symBinAddr: 0x100010DE0, symSize: 0x48 }
  - { offsetInCU: 0x1D2CF, offset: 0x1D2CF, size: 0x8, addend: 0x0, symName: __ZNSt3__112__to_addressB8ue170006IN2cv3MatEEEPT_S4_, symObjAddr: 0xF81C, symBinAddr: 0x100012114, symSize: 0x14 }
  - { offsetInCU: 0x1D304, offset: 0x1D304, size: 0x8, addend: 0x0, symName: __ZNSt3__112__to_addressB8ue170006IN2cv3VecIhLi3EEEEEPT_S5_, symObjAddr: 0xFE68, symBinAddr: 0x100012760, symSize: 0x14 }
  - { offsetInCU: 0x1D339, offset: 0x1D339, size: 0x8, addend: 0x0, symName: __ZNSt3__119__allocate_at_leastB8ue170006INS_9allocatorIN2cv3VecIhLi3EEEEEEENS_19__allocation_resultINS_16allocator_traitsIT_E7pointerEEERS8_m, symObjAddr: 0x10810, symBinAddr: 0x100013108, symSize: 0x40 }
  - { offsetInCU: 0x1D37C, offset: 0x1D37C, size: 0x8, addend: 0x0, symName: __ZNSt3__142__uninitialized_allocator_move_if_noexceptB8ue170006INS_9allocatorIN2cv3VecIhLi3EEEEENS_16reverse_iteratorIPS4_EES8_S8_EET2_RT_T0_T1_S9_, symObjAddr: 0x109C8, symBinAddr: 0x1000132C0, symSize: 0x12C }
  - { offsetInCU: 0x1D41C, offset: 0x1D41C, size: 0x8, addend: 0x0, symName: __ZNSt3__14swapB8ue170006IPN2cv3VecIhLi3EEEEENS_9enable_ifIXaasr21is_move_constructibleIT_EE5valuesr18is_move_assignableIS6_EE5valueEvE4typeERS6_S9_, symObjAddr: 0x10B40, symBinAddr: 0x100013438, symSize: 0x3C }
  - { offsetInCU: 0x1D46D, offset: 0x1D46D, size: 0x8, addend: 0x0, symName: __ZNSt3__122__make_exception_guardB8ue170006INS_29_AllocatorDestroyRangeReverseINS_9allocatorIN2cv3VecIhLi3EEEEENS_16reverse_iteratorIPS5_EEEEEENS_28__exception_guard_exceptionsIT_EESC_, symObjAddr: 0x10C44, symBinAddr: 0x10001353C, symSize: 0x4C }
  - { offsetInCU: 0x1D4A3, offset: 0x1D4A3, size: 0x8, addend: 0x0, symName: __ZNSt3__1neB8ue170006IPN2cv3VecIhLi3EEES4_EEbRKNS_16reverse_iteratorIT_EERKNS5_IT0_EE, symObjAddr: 0x10CD4, symBinAddr: 0x1000135CC, symSize: 0x48 }
  - { offsetInCU: 0x1D4EF, offset: 0x1D4EF, size: 0x8, addend: 0x0, symName: __ZNSt3__112__to_addressB8ue170006INS_16reverse_iteratorIPN2cv3VecIhLi3EEEEEvEEu7__decayIDTclsr19__to_address_helperIT_EE6__callclsr3stdE7declvalIRKS7_EEEEES9_, symObjAddr: 0x10D1C, symBinAddr: 0x100013614, symSize: 0x24 }
  - { offsetInCU: 0x1D54E, offset: 0x1D54E, size: 0x8, addend: 0x0, symName: __ZNSt3__119__allocator_destroyB8ue170006INS_9allocatorIN2cv3VecIhLi3EEEEENS_16reverse_iteratorINS6_IPS4_EEEES9_EEvRT_T0_T1_, symObjAddr: 0x10FCC, symBinAddr: 0x1000138C4, symSize: 0x70 }
  - { offsetInCU: 0x1D5B3, offset: 0x1D5B3, size: 0x8, addend: 0x0, symName: __ZNSt3__1neB8ue170006INS_16reverse_iteratorIPN2cv3VecIhLi3EEEEES6_EEbRKNS1_IT_EERKNS1_IT0_EE, symObjAddr: 0x11078, symBinAddr: 0x100013970, symSize: 0x60 }
  - { offsetInCU: 0x1D5FF, offset: 0x1D5FF, size: 0x8, addend: 0x0, symName: __ZNSt3__112__to_addressB8ue170006INS_16reverse_iteratorINS1_IPN2cv3VecIhLi3EEEEEEEvEEu7__decayIDTclsr19__to_address_helperIT_EE6__callclsr3stdE7declvalIRKS8_EEEEESA_, symObjAddr: 0x110D8, symBinAddr: 0x1000139D0, symSize: 0x24 }
  - { offsetInCU: 0x1D65E, offset: 0x1D65E, size: 0x8, addend: 0x0, symName: __ZNSt3__119__allocate_at_leastB8ue170006INS_9allocatorIN2cv3MatEEEEENS_19__allocation_resultINS_16allocator_traitsIT_E7pointerEEERS7_m, symObjAddr: 0x11F54, symBinAddr: 0x10001484C, symSize: 0x40 }
  - { offsetInCU: 0x1D6A1, offset: 0x1D6A1, size: 0x8, addend: 0x0, symName: __ZNSt3__142__uninitialized_allocator_move_if_noexceptB8ue170006INS_9allocatorIN2cv3MatEEENS_16reverse_iteratorIPS3_EES7_S7_EET2_RT_T0_T1_S8_, symObjAddr: 0x1210C, symBinAddr: 0x100014A04, symSize: 0x12C }
  - { offsetInCU: 0x1D741, offset: 0x1D741, size: 0x8, addend: 0x0, symName: __ZNSt3__14swapB8ue170006IPN2cv3MatEEENS_9enable_ifIXaasr21is_move_constructibleIT_EE5valuesr18is_move_assignableIS5_EE5valueEvE4typeERS5_S8_, symObjAddr: 0x12284, symBinAddr: 0x100014B7C, symSize: 0x3C }
  - { offsetInCU: 0x1D792, offset: 0x1D792, size: 0x8, addend: 0x0, symName: __ZNSt3__122__make_exception_guardB8ue170006INS_29_AllocatorDestroyRangeReverseINS_9allocatorIN2cv3MatEEENS_16reverse_iteratorIPS4_EEEEEENS_28__exception_guard_exceptionsIT_EESB_, symObjAddr: 0x12388, symBinAddr: 0x100014C80, symSize: 0x4C }
  - { offsetInCU: 0x1D7C8, offset: 0x1D7C8, size: 0x8, addend: 0x0, symName: __ZNSt3__1neB8ue170006IPN2cv3MatES3_EEbRKNS_16reverse_iteratorIT_EERKNS4_IT0_EE, symObjAddr: 0x12418, symBinAddr: 0x100014D10, symSize: 0x48 }
  - { offsetInCU: 0x1D814, offset: 0x1D814, size: 0x8, addend: 0x0, symName: __ZNSt3__112__to_addressB8ue170006INS_16reverse_iteratorIPN2cv3MatEEEvEEu7__decayIDTclsr19__to_address_helperIT_EE6__callclsr3stdE7declvalIRKS6_EEEEES8_, symObjAddr: 0x12460, symBinAddr: 0x100014D58, symSize: 0x24 }
  - { offsetInCU: 0x1D873, offset: 0x1D873, size: 0x8, addend: 0x0, symName: __ZNSt3__119__allocator_destroyB8ue170006INS_9allocatorIN2cv3MatEEENS_16reverse_iteratorINS5_IPS3_EEEES8_EEvRT_T0_T1_, symObjAddr: 0x12710, symBinAddr: 0x100015008, symSize: 0x70 }
  - { offsetInCU: 0x1D8D8, offset: 0x1D8D8, size: 0x8, addend: 0x0, symName: __ZNSt3__1neB8ue170006INS_16reverse_iteratorIPN2cv3MatEEES5_EEbRKNS1_IT_EERKNS1_IT0_EE, symObjAddr: 0x127BC, symBinAddr: 0x1000150B4, symSize: 0x60 }
  - { offsetInCU: 0x1D924, offset: 0x1D924, size: 0x8, addend: 0x0, symName: __ZNSt3__112__to_addressB8ue170006INS_16reverse_iteratorINS1_IPN2cv3MatEEEEEvEEu7__decayIDTclsr19__to_address_helperIT_EE6__callclsr3stdE7declvalIRKS7_EEEEES9_, symObjAddr: 0x1281C, symBinAddr: 0x100015114, symSize: 0x24 }
  - { offsetInCU: 0x1D983, offset: 0x1D983, size: 0x8, addend: 0x0, symName: __ZNSt3__119__allocate_at_leastB8ue170006INS_9allocatorIN2cv7Point3_IfEEEEEENS_19__allocation_resultINS_16allocator_traitsIT_E7pointerEEERS8_m, symObjAddr: 0x132EC, symBinAddr: 0x100015BE4, symSize: 0x40 }
  - { offsetInCU: 0x1D9C6, offset: 0x1D9C6, size: 0x8, addend: 0x0, symName: __ZNSt3__142__uninitialized_allocator_move_if_noexceptB8ue170006INS_9allocatorIN2cv7Point3_IfEEEENS_16reverse_iteratorIPS4_EES8_S4_vEET1_RT_T0_SC_S9_, symObjAddr: 0x134A4, symBinAddr: 0x100015D9C, symSize: 0x78 }
  - { offsetInCU: 0x1DA43, offset: 0x1DA43, size: 0x8, addend: 0x0, symName: __ZNSt3__14swapB8ue170006IPN2cv7Point3_IfEEEENS_9enable_ifIXaasr21is_move_constructibleIT_EE5valuesr18is_move_assignableIS6_EE5valueEvE4typeERS6_S9_, symObjAddr: 0x13568, symBinAddr: 0x100015E60, symSize: 0x3C }
  - { offsetInCU: 0x1DA94, offset: 0x1DA94, size: 0x8, addend: 0x0, symName: __ZNSt3__14moveB8ue170006INS_16reverse_iteratorIPN2cv7Point3_IfEEEES6_EET0_T_S8_S7_, symObjAddr: 0x1366C, symBinAddr: 0x100015F64, symSize: 0x78 }
  - { offsetInCU: 0x1DAEE, offset: 0x1DAEE, size: 0x8, addend: 0x0, symName: __ZNSt3__16__moveB8ue170006INS_17_ClassicAlgPolicyENS_16reverse_iteratorIPN2cv7Point3_IfEEEES7_S7_EENS_4pairIT0_T2_EES9_T1_SA_, symObjAddr: 0x136E4, symBinAddr: 0x100015FDC, symSize: 0x64 }
  - { offsetInCU: 0x1DB5A, offset: 0x1DB5A, size: 0x8, addend: 0x0, symName: __ZNSt3__123__dispatch_copy_or_moveB8ue170006INS_17_ClassicAlgPolicyENS_11__move_loopIS1_EENS_14__move_trivialENS_16reverse_iteratorIPN2cv7Point3_IfEEEESA_SA_EENS_4pairIT2_T4_EESC_T3_SD_, symObjAddr: 0x13748, symBinAddr: 0x100016040, symSize: 0x64 }
  - { offsetInCU: 0x1DBD8, offset: 0x1DBD8, size: 0x8, addend: 0x0, symName: __ZNSt3__121__unwrap_and_dispatchB8ue170006INS_10__overloadINS_11__move_loopINS_17_ClassicAlgPolicyEEENS_14__move_trivialEEENS_16reverse_iteratorIPN2cv7Point3_IfEEEESC_SC_Li0EEENS_4pairIT0_T2_EESE_T1_SF_, symObjAddr: 0x137AC, symBinAddr: 0x1000160A4, symSize: 0x12C }
  - { offsetInCU: 0x1DC68, offset: 0x1DC68, size: 0x8, addend: 0x0, symName: __ZNSt3__114__unwrap_rangeB8ue170006INS_16reverse_iteratorIPN2cv7Point3_IfEEEES6_EENS_4pairIT0_S8_EET_SA_, symObjAddr: 0x138D8, symBinAddr: 0x1000161D0, symSize: 0x84 }
  - { offsetInCU: 0x1DD88, offset: 0x1DD88, size: 0x8, addend: 0x0, symName: __ZNSt3__113__unwrap_iterB8ue170006INS_16reverse_iteratorIPN2cv7Point3_IfEEEENS_18__unwrap_iter_implIS6_Lb0EEELi0EEEDTclsrT0_8__unwrapclsr3stdE7declvalIT_EEEESA_, symObjAddr: 0x13A04, symBinAddr: 0x1000162FC, symSize: 0x44 }
  - { offsetInCU: 0x1DDCC, offset: 0x1DDCC, size: 0x8, addend: 0x0, symName: __ZNSt3__19make_pairB8ue170006INS_16reverse_iteratorIPN2cv7Point3_IfEEEES6_EENS_4pairINS_18__unwrap_ref_decayIT_E4typeENS8_IT0_E4typeEEEOS9_OSC_, symObjAddr: 0x13A48, symBinAddr: 0x100016340, symSize: 0x38 }
  - { offsetInCU: 0x1DE1B, offset: 0x1DE1B, size: 0x8, addend: 0x0, symName: __ZNSt3__114__rewrap_rangeB8ue170006INS_16reverse_iteratorIPN2cv7Point3_IfEEEES6_EET_S7_T0_, symObjAddr: 0x13A80, symBinAddr: 0x100016378, symSize: 0x5C }
  - { offsetInCU: 0x1DE67, offset: 0x1DE67, size: 0x8, addend: 0x0, symName: __ZNSt3__113__rewrap_iterB8ue170006INS_16reverse_iteratorIPN2cv7Point3_IfEEEES6_NS_18__unwrap_iter_implIS6_Lb0EEEEET_S9_T0_, symObjAddr: 0x13ADC, symBinAddr: 0x1000163D4, symSize: 0x74 }
  - { offsetInCU: 0x1DEBC, offset: 0x1DEBC, size: 0x8, addend: 0x0, symName: __ZNSt3__1neB8ue170006IPN2cv7Point3_IfEES4_EEbRKNS_16reverse_iteratorIT_EERKNS5_IT0_EE, symObjAddr: 0x13B50, symBinAddr: 0x100016448, symSize: 0x48 }
  - { offsetInCU: 0x1E8FA, offset: 0x1E8FA, size: 0x8, addend: 0x0, symName: __ZSt28__throw_bad_array_new_lengthB8ue170006v, symObjAddr: 0x97F4, symBinAddr: 0x10000C0EC, symSize: 0x34 }
  - { offsetInCU: 0x29B42, offset: 0x29B42, size: 0x8, addend: 0x0, symName: __ZN2cvdVERNS_3MatERKd, symObjAddr: 0x26C, symBinAddr: 0x100002B64, symSize: 0x8C }
  - { offsetInCU: 0x29B80, offset: 0x29B80, size: 0x8, addend: 0x0, symName: __ZN2cvmiIdEENS_6Point_IT_EERKS3_S5_, symObjAddr: 0x424, symBinAddr: 0x100002D1C, symSize: 0x6C }
  - { offsetInCU: 0x29BC7, offset: 0x29BC7, size: 0x8, addend: 0x0, symName: __ZN2cvdvIdEENS_6Point_IT_EERKS3_d, symObjAddr: 0x33B8, symBinAddr: 0x100005CB0, symSize: 0x40 }
  - { offsetInCU: 0x29C1D, offset: 0x29C1D, size: 0x8, addend: 0x0, symName: __ZN2cvlsIdEERNSt3__113basic_ostreamIcNS1_11char_traitsIcEEEES6_RKNS_6Point_IT_EE, symObjAddr: 0x68E8, symBinAddr: 0x1000091E0, symSize: 0x64 }
  - { offsetInCU: 0x29C61, offset: 0x29C61, size: 0x8, addend: 0x0, symName: __ZN2cvlsIddEENS_20MatCommaInitializer_IT_EERKNS_4Mat_IS2_EET0_, symObjAddr: 0x6BB0, symBinAddr: 0x1000094A8, symSize: 0x50 }
  - { offsetInCU: 0x29CC0, offset: 0x29CC0, size: 0x8, addend: 0x0, symName: __ZN2cvlsIdiEENS_20MatCommaInitializer_IT_EERKNS_4Mat_IS2_EET0_, symObjAddr: 0x6D7C, symBinAddr: 0x100009674, symSize: 0x50 }
  - { offsetInCU: 0x29D1F, offset: 0x29D1F, size: 0x8, addend: 0x0, symName: __ZN2cvdVIdLi4EEERNS_3VecIT_XT0_EEES4_d, symObjAddr: 0x7030, symBinAddr: 0x100009928, symSize: 0x98 }
  - { offsetInCU: 0x29D9D, offset: 0x29D9D, size: 0x8, addend: 0x0, symName: __ZN2cvL13saturate_castIdEET_d, symObjAddr: 0x8CEC, symBinAddr: 0x10000B5E4, symSize: 0x14 }
  - { offsetInCU: 0x29DD3, offset: 0x29DD3, size: 0x8, addend: 0x0, symName: __ZN2cvdVIdEERNS_6Point_IT_EES4_d, symObjAddr: 0xA1E8, symBinAddr: 0x10000CAE0, symSize: 0x5C }
  - { offsetInCU: 0x2AF50, offset: 0x2AF50, size: 0x8, addend: 0x0, symName: __Z3powB8ue170006IdiENSt3__19enable_ifIXaasr3std13is_arithmeticIT_EE5valuesr3std13is_arithmeticIT0_EE5valueENS0_9__promoteIS2_S3_vEEE4type4typeES2_S3_, symObjAddr: 0x994, symBinAddr: 0x10000328C, symSize: 0x38 }
  - { offsetInCU: 0x2B6C4, offset: 0x2B6C4, size: 0x8, addend: 0x0, symName: __ZNSt3__16vectorIN2cv6Point_IiEENS_9allocatorIS3_EEE26__swap_out_circular_bufferERNS_14__split_bufferIS3_RS5_EE, symObjAddr: 0xBF9C, symBinAddr: 0x10000E894, symSize: 0x110 }
  - { offsetInCU: 0x2B87E, offset: 0x2B87E, size: 0x8, addend: 0x0, symName: __ZNSt3__16vectorIN2cv6Point_IdEENS_9allocatorIS3_EEE26__swap_out_circular_bufferERNS_14__split_bufferIS3_RS5_EE, symObjAddr: 0xD94C, symBinAddr: 0x100010244, symSize: 0x110 }
  - { offsetInCU: 0x2BC10, offset: 0x2BC10, size: 0x8, addend: 0x0, symName: __ZNSt3__16vectorIN2cv3VecIhLi3EEENS_9allocatorIS3_EEE26__swap_out_circular_bufferERNS_14__split_bufferIS3_RS5_EE, symObjAddr: 0x104A4, symBinAddr: 0x100012D9C, symSize: 0x110 }
  - { offsetInCU: 0x2BCA3, offset: 0x2BCA3, size: 0x8, addend: 0x0, symName: __ZNSt3__16vectorIN2cv3MatENS_9allocatorIS2_EEE26__swap_out_circular_bufferERNS_14__split_bufferIS2_RS4_EE, symObjAddr: 0x11BE4, symBinAddr: 0x1000144DC, symSize: 0x110 }
  - { offsetInCU: 0x2BD36, offset: 0x2BD36, size: 0x8, addend: 0x0, symName: __ZNSt3__16vectorIN2cv7Point3_IfEENS_9allocatorIS3_EEE26__swap_out_circular_bufferERNS_14__split_bufferIS3_RS5_EE, symObjAddr: 0x12F7C, symBinAddr: 0x100015874, symSize: 0x110 }
  - { offsetInCU: 0x2E88D, offset: 0x2E88D, size: 0x8, addend: 0x0, symName: __Z7get_errN2cv6Point_IdEENS_3MatES2_S2_, symObjAddr: 0x0, symBinAddr: 0x1000028F8, symSize: 0x188 }
  - { offsetInCU: 0x2E914, offset: 0x2E914, size: 0x8, addend: 0x0, symName: __ZNK2cv7MatExprcvNS_3MatEEv, symObjAddr: 0x188, symBinAddr: 0x100002A80, symSize: 0xB8 }
  - { offsetInCU: 0x2E94D, offset: 0x2E94D, size: 0x8, addend: 0x0, symName: __ZN2cv7MatExprD1Ev, symObjAddr: 0x240, symBinAddr: 0x100002B38, symSize: 0x2C }
  - { offsetInCU: 0x2E97A, offset: 0x2E97A, size: 0x8, addend: 0x0, symName: __ZN2cv3Mat2atIdEERT_i, symObjAddr: 0x2F8, symBinAddr: 0x100002BF0, symSize: 0x100 }
  - { offsetInCU: 0x2E9D6, offset: 0x2E9D6, size: 0x8, addend: 0x0, symName: __ZN2cv6Point_IdEC1Ev, symObjAddr: 0x3F8, symBinAddr: 0x100002CF0, symSize: 0x2C }
  - { offsetInCU: 0x2EA01, offset: 0x2EA01, size: 0x8, addend: 0x0, symName: __Z16total_error_funcRN2cv3MatERNSt3__16vectorI14CorrespondenceNS2_9allocatorIS4_EEEERNS3_IS0_NS5_IS0_EEEES0_S0_S0_, symObjAddr: 0x490, symBinAddr: 0x100002D88, symSize: 0x48C }
  - { offsetInCU: 0x2EB04, offset: 0x2EB04, size: 0x8, addend: 0x0, symName: __ZNKSt3__16vectorI14CorrespondenceNS_9allocatorIS1_EEE4sizeB8ue170006Ev, symObjAddr: 0x91C, symBinAddr: 0x100003214, symSize: 0x28 }
  - { offsetInCU: 0x2EB2A, offset: 0x2EB2A, size: 0x8, addend: 0x0, symName: __ZNSt3__16vectorI14CorrespondenceNS_9allocatorIS1_EEEixB8ue170006Em, symObjAddr: 0x944, symBinAddr: 0x10000323C, symSize: 0x24 }
  - { offsetInCU: 0x2EB61, offset: 0x2EB61, size: 0x8, addend: 0x0, symName: __ZNSt3__16vectorIN2cv3MatENS_9allocatorIS2_EEEixB8ue170006Em, symObjAddr: 0x968, symBinAddr: 0x100003260, symSize: 0x2C }
  - { offsetInCU: 0x2EB98, offset: 0x2EB98, size: 0x8, addend: 0x0, symName: __ZNSt3__113basic_ostreamIcNS_11char_traitsIcEEElsB8ue170006EPFRS3_S4_E, symObjAddr: 0x9CC, symBinAddr: 0x1000032C4, symSize: 0x2C }
  - { offsetInCU: 0x2EBCC, offset: 0x2EBCC, size: 0x8, addend: 0x0, symName: __Z19rotationToRodriguezRN2cv3MatES1_, symObjAddr: 0xA50, symBinAddr: 0x100003348, symSize: 0xA8 }
  - { offsetInCU: 0x2EC03, offset: 0x2EC03, size: 0x8, addend: 0x0, symName: __ZN2cv11_InputArrayC1ERKNS_3MatE, symObjAddr: 0xAF8, symBinAddr: 0x1000033F0, symSize: 0x34 }
  - { offsetInCU: 0x2EC3D, offset: 0x2EC3D, size: 0x8, addend: 0x0, symName: __ZN2cv12_OutputArrayC1ERNS_3MatE, symObjAddr: 0xB2C, symBinAddr: 0x100003424, symSize: 0x34 }
  - { offsetInCU: 0x2EC77, offset: 0x2EC77, size: 0x8, addend: 0x0, symName: __ZN2cv12_OutputArrayD1Ev, symObjAddr: 0xB60, symBinAddr: 0x100003458, symSize: 0x2C }
  - { offsetInCU: 0x2ECA4, offset: 0x2ECA4, size: 0x8, addend: 0x0, symName: __ZN2cv11_InputArrayD1Ev, symObjAddr: 0xB8C, symBinAddr: 0x100003484, symSize: 0x2C }
  - { offsetInCU: 0x2ECD0, offset: 0x2ECD0, size: 0x8, addend: 0x0, symName: __Z25rotationToRodriguez_jacobRN2cv3MatES1_S1_, symObjAddr: 0xBB8, symBinAddr: 0x1000034B0, symSize: 0xD4 }
  - { offsetInCU: 0x2ED15, offset: 0x2ED15, size: 0x8, addend: 0x0, symName: __Z19rodriguezToRotationRN2cv3MatES1_, symObjAddr: 0xC8C, symBinAddr: 0x100003584, symSize: 0xA8 }
  - { offsetInCU: 0x2ED4C, offset: 0x2ED4C, size: 0x8, addend: 0x0, symName: __Z25rodriguezToRotation_jacobRN2cv3MatES1_S1_, symObjAddr: 0xD34, symBinAddr: 0x10000362C, symSize: 0xD4 }
  - { offsetInCU: 0x2ED91, offset: 0x2ED91, size: 0x8, addend: 0x0, symName: __Z11exportToCSVRN2cv3MatERNSt3__112basic_stringIcNS2_11char_traitsIcEENS2_9allocatorIcEEEE, symObjAddr: 0xE08, symBinAddr: 0x100003700, symSize: 0x218 }
  - { offsetInCU: 0x2EEAB, offset: 0x2EEAB, size: 0x8, addend: 0x0, symName: __ZNSt3__114basic_ofstreamIcNS_11char_traitsIcEEEC1ERKNS_12basic_stringIcS2_NS_9allocatorIcEEEEj, symObjAddr: 0x1020, symBinAddr: 0x100003918, symSize: 0x16C }
  - { offsetInCU: 0x2EEF5, offset: 0x2EEF5, size: 0x8, addend: 0x0, symName: __ZNKSt3__114basic_ofstreamIcNS_11char_traitsIcEEE7is_openEv, symObjAddr: 0x118C, symBinAddr: 0x100003A84, symSize: 0x2C }
  - { offsetInCU: 0x2EF1D, offset: 0x2EF1D, size: 0x8, addend: 0x0, symName: __ZN2cv3Mat2atIdEERT_ii, symObjAddr: 0x124C, symBinAddr: 0x100003B44, symSize: 0x3C }
  - { offsetInCU: 0x2EF6A, offset: 0x2EF6A, size: 0x8, addend: 0x0, symName: __ZNSt3__114basic_ofstreamIcNS_11char_traitsIcEEE5closeEv, symObjAddr: 0x1288, symBinAddr: 0x100003B80, symSize: 0x58 }
  - { offsetInCU: 0x2EF97, offset: 0x2EF97, size: 0x8, addend: 0x0, symName: __ZNSt3__114basic_ofstreamIcNS_11char_traitsIcEEED1Ev, symObjAddr: 0x12E0, symBinAddr: 0x100003BD8, symSize: 0x40 }
  - { offsetInCU: 0x2EFC4, offset: 0x2EFC4, size: 0x8, addend: 0x0, symName: __Z5JacobRN2cv3MatERNSt3__16vectorI14CorrespondenceNS2_9allocatorIS4_EEEERNS3_IS0_NS5_IS0_EEEES1_S0_S0_, symObjAddr: 0x1320, symBinAddr: 0x100003C18, symSize: 0x1F70 }
  - { offsetInCU: 0x2F264, offset: 0x2F264, size: 0x8, addend: 0x0, symName: __ZNSt3__14pairIiiEC1B8ue170006IiiLPv0EEEOT_OT0_, symObjAddr: 0x3290, symBinAddr: 0x100005B88, symSize: 0x3C }
  - { offsetInCU: 0x2F2C2, offset: 0x2F2C2, size: 0x8, addend: 0x0, symName: __ZNSt3__16vectorINS_4pairIiiEENS_9allocatorIS2_EEEC1B8ue170006ESt16initializer_listIS2_E, symObjAddr: 0x32CC, symBinAddr: 0x100005BC4, symSize: 0x3C }
  - { offsetInCU: 0x2F2FD, offset: 0x2F2FD, size: 0x8, addend: 0x0, symName: __ZN2cv5Rect_IiEC1Eiiii, symObjAddr: 0x3308, symBinAddr: 0x100005C00, symSize: 0x4C }
  - { offsetInCU: 0x2F365, offset: 0x2F365, size: 0x8, addend: 0x0, symName: __ZNK2cv3MatclERKNS_5Rect_IiEE, symObjAddr: 0x3354, symBinAddr: 0x100005C4C, symSize: 0x40 }
  - { offsetInCU: 0x2F39D, offset: 0x2F39D, size: 0x8, addend: 0x0, symName: __ZNSt3__16vectorINS_4pairIiiEENS_9allocatorIS2_EEEixB8ue170006Em, symObjAddr: 0x3394, symBinAddr: 0x100005C8C, symSize: 0x24 }
  - { offsetInCU: 0x2F3D4, offset: 0x2F3D4, size: 0x8, addend: 0x0, symName: __ZN2cv12_OutputArrayC1ERKNS_3MatE, symObjAddr: 0x33F8, symBinAddr: 0x100005CF0, symSize: 0x34 }
  - { offsetInCU: 0x2F410, offset: 0x2F410, size: 0x8, addend: 0x0, symName: __ZNSt3__16vectorINS_4pairIiiEENS_9allocatorIS2_EEED1B8ue170006Ev, symObjAddr: 0x342C, symBinAddr: 0x100005D24, symSize: 0x2C }
  - { offsetInCU: 0x2F43A, offset: 0x2F43A, size: 0x8, addend: 0x0, symName: __Z7solveLSRN2cv3MatES1_S1_, symObjAddr: 0x3458, symBinAddr: 0x100005D50, symSize: 0x518 }
  - { offsetInCU: 0x2F504, offset: 0x2F504, size: 0x8, addend: 0x0, symName: __ZNSt3__112basic_stringIcNS_11char_traitsIcEENS_9allocatorIcEEEC1B8ue170006ILi0EEEPKc, symObjAddr: 0x3970, symBinAddr: 0x100006268, symSize: 0x34 }
  - { offsetInCU: 0x2F542, offset: 0x2F542, size: 0x8, addend: 0x0, symName: __Z3absB8ue170006d, symObjAddr: 0x39A4, symBinAddr: 0x10000629C, symSize: 0x18 }
  - { offsetInCU: 0x2F56E, offset: 0x2F56E, size: 0x8, addend: 0x0, symName: __Z11getStateVecRN2cv3MatERNSt3__16vectorIS0_NS2_9allocatorIS0_EEEES1_S1_S1_, symObjAddr: 0x39BC, symBinAddr: 0x1000062B4, symSize: 0x6A0 }
  - { offsetInCU: 0x2F6E5, offset: 0x2F6E5, size: 0x8, addend: 0x0, symName: __ZNKSt3__16vectorIN2cv3MatENS_9allocatorIS2_EEE4sizeB8ue170006Ev, symObjAddr: 0x405C, symBinAddr: 0x100006954, symSize: 0x28 }
  - { offsetInCU: 0x2F70A, offset: 0x2F70A, size: 0x8, addend: 0x0, symName: __Z13stateVecToMatRN2cv3MatERNSt3__16vectorIS0_NS2_9allocatorIS0_EEEES1_S1_S1_, symObjAddr: 0x4084, symBinAddr: 0x10000697C, symSize: 0x768 }
  - { offsetInCU: 0x2F862, offset: 0x2F862, size: 0x8, addend: 0x0, symName: __ZNK2cv3Mat8rowRangeEii, symObjAddr: 0x47EC, symBinAddr: 0x1000070E4, symSize: 0x68 }
  - { offsetInCU: 0x2F8A9, offset: 0x2F8A9, size: 0x8, addend: 0x0, symName: _main, symObjAddr: 0x4854, symBinAddr: 0x10000714C, symSize: 0x1F64 }
  - { offsetInCU: 0x2FDDC, offset: 0x2FDDC, size: 0x8, addend: 0x0, symName: __ZNSt3__16vectorIP19MouseCallbackParamsNS_9allocatorIS2_EEEC1B8ue170006Ev, symObjAddr: 0x67B8, symBinAddr: 0x1000090B0, symSize: 0x2C }
  - { offsetInCU: 0x2FE06, offset: 0x2FE06, size: 0x8, addend: 0x0, symName: __ZNSt3__16vectorIN2cv7Point3_IfEENS_9allocatorIS3_EEEC1B8ue170006Ev, symObjAddr: 0x67E4, symBinAddr: 0x1000090DC, symSize: 0x2C }
  - { offsetInCU: 0x2FE30, offset: 0x2FE30, size: 0x8, addend: 0x0, symName: __ZNSt3__16vectorI14CorrespondenceNS_9allocatorIS1_EEEC1B8ue170006Ev, symObjAddr: 0x6810, symBinAddr: 0x100009108, symSize: 0x2C }
  - { offsetInCU: 0x2FE5A, offset: 0x2FE5A, size: 0x8, addend: 0x0, symName: __ZNSt3__16vectorI14CorrespondenceNS_9allocatorIS1_EEE5beginB8ue170006Ev, symObjAddr: 0x683C, symBinAddr: 0x100009134, symSize: 0x30 }
  - { offsetInCU: 0x2FE82, offset: 0x2FE82, size: 0x8, addend: 0x0, symName: __ZNSt3__16vectorI14CorrespondenceNS_9allocatorIS1_EEE3endB8ue170006Ev, symObjAddr: 0x686C, symBinAddr: 0x100009164, symSize: 0x30 }
  - { offsetInCU: 0x2FEAA, offset: 0x2FEAA, size: 0x8, addend: 0x0, symName: __ZNKSt3__111__wrap_iterIP14CorrespondenceEdeB8ue170006Ev, symObjAddr: 0x68D0, symBinAddr: 0x1000091C8, symSize: 0x18 }
  - { offsetInCU: 0x2FED0, offset: 0x2FED0, size: 0x8, addend: 0x0, symName: __ZNSt3__111__wrap_iterIP14CorrespondenceEppB8ue170006Ev, symObjAddr: 0x694C, symBinAddr: 0x100009244, symSize: 0x20 }
  - { offsetInCU: 0x2FEFB, offset: 0x2FEFB, size: 0x8, addend: 0x0, symName: __ZN19MouseCallbackParamsC1Ev, symObjAddr: 0x696C, symBinAddr: 0x100009264, symSize: 0x2C }
  - { offsetInCU: 0x2FF27, offset: 0x2FF27, size: 0x8, addend: 0x0, symName: __ZNSt3__16vectorIN2cv6Point_IiEENS_9allocatorIS3_EEEC1B8ue170006Ev, symObjAddr: 0x6998, symBinAddr: 0x100009290, symSize: 0x2C }
  - { offsetInCU: 0x2FF51, offset: 0x2FF51, size: 0x8, addend: 0x0, symName: __ZNSt3__16vectorIP19MouseCallbackParamsNS_9allocatorIS2_EEE4backB8ue170006Ev, symObjAddr: 0x69C4, symBinAddr: 0x1000092BC, symSize: 0x1C }
  - { offsetInCU: 0x2FF77, offset: 0x2FF77, size: 0x8, addend: 0x0, symName: __ZNSt3__16vectorI9DataPointNS_9allocatorIS1_EEE5beginB8ue170006Ev, symObjAddr: 0x69E0, symBinAddr: 0x1000092D8, symSize: 0x30 }
  - { offsetInCU: 0x2FF9F, offset: 0x2FF9F, size: 0x8, addend: 0x0, symName: __ZNSt3__16vectorI9DataPointNS_9allocatorIS1_EEE3endB8ue170006Ev, symObjAddr: 0x6A10, symBinAddr: 0x100009308, symSize: 0x30 }
  - { offsetInCU: 0x2FFC7, offset: 0x2FFC7, size: 0x8, addend: 0x0, symName: __ZNKSt3__111__wrap_iterIP9DataPointEdeB8ue170006Ev, symObjAddr: 0x6A74, symBinAddr: 0x10000936C, symSize: 0x18 }
  - { offsetInCU: 0x2FFED, offset: 0x2FFED, size: 0x8, addend: 0x0, symName: __ZNSt3__16vectorIN2cv6Point_IiEENS_9allocatorIS3_EEE9push_backB8ue170006ERKS3_, symObjAddr: 0x6A8C, symBinAddr: 0x100009384, symSize: 0x6C }
  - { offsetInCU: 0x30024, offset: 0x30024, size: 0x8, addend: 0x0, symName: __ZNSt3__111__wrap_iterIP9DataPointEppB8ue170006Ev, symObjAddr: 0x6AF8, symBinAddr: 0x1000093F0, symSize: 0x20 }
  - { offsetInCU: 0x3004A, offset: 0x3004A, size: 0x8, addend: 0x0, symName: __ZNSt3__16vectorIN2cv6Point_IdEENS_9allocatorIS3_EEEC1B8ue170006Ev, symObjAddr: 0x6B18, symBinAddr: 0x100009410, symSize: 0x2C }
  - { offsetInCU: 0x30074, offset: 0x30074, size: 0x8, addend: 0x0, symName: __ZNSt3__16vectorIN2cv6Point_IdEENS_9allocatorIS3_EEE9push_backB8ue170006ERKS3_, symObjAddr: 0x6B44, symBinAddr: 0x10000943C, symSize: 0x6C }
  - { offsetInCU: 0x300AB, offset: 0x300AB, size: 0x8, addend: 0x0, symName: __ZN2cv4Mat_IdEC1Eii, symObjAddr: 0x6C00, symBinAddr: 0x1000094F8, symSize: 0x3C }
  - { offsetInCU: 0x300FB, offset: 0x300FB, size: 0x8, addend: 0x0, symName: __ZN2cv20MatCommaInitializer_IdEcmIdEERS1_T_, symObjAddr: 0x6C3C, symBinAddr: 0x100009534, symSize: 0x4C }
  - { offsetInCU: 0x3013C, offset: 0x3013C, size: 0x8, addend: 0x0, symName: __ZN2cv20MatCommaInitializer_IdEcmIiEERS1_T_, symObjAddr: 0x6C88, symBinAddr: 0x100009580, symSize: 0x58 }
  - { offsetInCU: 0x3017D, offset: 0x3017D, size: 0x8, addend: 0x0, symName: __ZNK2cv20MatCommaInitializer_IdEcvNS_4Mat_IdEEEv, symObjAddr: 0x6CE0, symBinAddr: 0x1000095D8, symSize: 0x3C }
  - { offsetInCU: 0x301A6, offset: 0x301A6, size: 0x8, addend: 0x0, symName: __ZN2cv4Mat_IdED1Ev, symObjAddr: 0x6D1C, symBinAddr: 0x100009614, symSize: 0x2C }
  - { offsetInCU: 0x301D3, offset: 0x301D3, size: 0x8, addend: 0x0, symName: __ZN2cv11_InputArrayC1INS_6Point_IdEEEERKNSt3__16vectorIT_NS4_9allocatorIS6_EEEE, symObjAddr: 0x6D48, symBinAddr: 0x100009640, symSize: 0x34 }
  - { offsetInCU: 0x30214, offset: 0x30214, size: 0x8, addend: 0x0, symName: __ZNSt3__16vectorIN2cv3MatENS_9allocatorIS2_EEEC1B8ue170006Ev, symObjAddr: 0x6DCC, symBinAddr: 0x1000096C4, symSize: 0x2C }
  - { offsetInCU: 0x3023E, offset: 0x3023E, size: 0x8, addend: 0x0, symName: __ZN2cv7Point3_IfEC1Ev, symObjAddr: 0x6DF8, symBinAddr: 0x1000096F0, symSize: 0x2C }
  - { offsetInCU: 0x3026A, offset: 0x3026A, size: 0x8, addend: 0x0, symName: __ZNSt3__16vectorIN2cv3VecIhLi3EEENS_9allocatorIS3_EEEC1B8ue170006Ev, symObjAddr: 0x6E24, symBinAddr: 0x10000971C, symSize: 0x2C }
  - { offsetInCU: 0x30294, offset: 0x30294, size: 0x8, addend: 0x0, symName: __ZNSt3__16vectorIN2cv3VecIhLi3EEENS_9allocatorIS3_EEE5clearB8ue170006Ev, symObjAddr: 0x6E50, symBinAddr: 0x100009748, symSize: 0x44 }
  - { offsetInCU: 0x302C9, offset: 0x302C9, size: 0x8, addend: 0x0, symName: __ZNK2cv3Mat3colEi, symObjAddr: 0x6E94, symBinAddr: 0x10000978C, symSize: 0x6C }
  - { offsetInCU: 0x30301, offset: 0x30301, size: 0x8, addend: 0x0, symName: __ZN2cv3Mat2atINS_3VecIhLi3EEEEERT_ii, symObjAddr: 0x6F00, symBinAddr: 0x1000097F8, symSize: 0x44 }
  - { offsetInCU: 0x3034E, offset: 0x3034E, size: 0x8, addend: 0x0, symName: __ZN2cv3VecIhLi3EEC1ERKS1_, symObjAddr: 0x6F44, symBinAddr: 0x10000983C, symSize: 0x34 }
  - { offsetInCU: 0x30389, offset: 0x30389, size: 0x8, addend: 0x0, symName: __ZNSt3__16vectorIN2cv3VecIhLi3EEENS_9allocatorIS3_EEE9push_backB8ue170006ERKS3_, symObjAddr: 0x6F78, symBinAddr: 0x100009870, symSize: 0x6C }
  - { offsetInCU: 0x303C0, offset: 0x303C0, size: 0x8, addend: 0x0, symName: __ZN2cv3VecIdLi4EEC1Edddd, symObjAddr: 0x6FE4, symBinAddr: 0x1000098DC, symSize: 0x4C }
  - { offsetInCU: 0x30428, offset: 0x30428, size: 0x8, addend: 0x0, symName: __ZN2cv3MatC1IdLi4EEERKNS_3VecIT_XT0_EEEb, symObjAddr: 0x70C8, symBinAddr: 0x1000099C0, symSize: 0x48 }
  - { offsetInCU: 0x30483, offset: 0x30483, size: 0x8, addend: 0x0, symName: __ZNSt3__16vectorIN2cv3MatENS_9allocatorIS2_EEE9push_backB8ue170006ERKS2_, symObjAddr: 0x7110, symBinAddr: 0x100009A08, symSize: 0x6C }
  - { offsetInCU: 0x304BA, offset: 0x304BA, size: 0x8, addend: 0x0, symName: __ZNSt3__16vectorIN2cv7Point3_IfEENS_9allocatorIS3_EEE9push_backB8ue170006ERKS3_, symObjAddr: 0x717C, symBinAddr: 0x100009A74, symSize: 0x6C }
  - { offsetInCU: 0x304F1, offset: 0x304F1, size: 0x8, addend: 0x0, symName: __ZN2cv3MataSERKNS_7MatExprE, symObjAddr: 0x71E8, symBinAddr: 0x100009AE0, symSize: 0x48 }
  - { offsetInCU: 0x30529, offset: 0x30529, size: 0x8, addend: 0x0, symName: __ZNSt3__16vectorIN2cv3VecIhLi3EEENS_9allocatorIS3_EEED1B8ue170006Ev, symObjAddr: 0x7230, symBinAddr: 0x100009B28, symSize: 0x2C }
  - { offsetInCU: 0x30553, offset: 0x30553, size: 0x8, addend: 0x0, symName: __ZNSt3__16vectorIN2cv7Point3_IfEENS_9allocatorIS3_EEED1B8ue170006Ev, symObjAddr: 0x725C, symBinAddr: 0x100009B54, symSize: 0x2C }
  - { offsetInCU: 0x3057D, offset: 0x3057D, size: 0x8, addend: 0x0, symName: __ZNSt3__16vectorIN2cv3MatENS_9allocatorIS2_EEED1B8ue170006Ev, symObjAddr: 0x7288, symBinAddr: 0x100009B80, symSize: 0x2C }
  - { offsetInCU: 0x305A7, offset: 0x305A7, size: 0x8, addend: 0x0, symName: __ZNSt3__16vectorIN2cv6Point_IdEENS_9allocatorIS3_EEED1B8ue170006Ev, symObjAddr: 0x72B4, symBinAddr: 0x100009BAC, symSize: 0x2C }
  - { offsetInCU: 0x305D1, offset: 0x305D1, size: 0x8, addend: 0x0, symName: __ZNSt3__16vectorIN2cv6Point_IiEENS_9allocatorIS3_EEED1B8ue170006Ev, symObjAddr: 0x72E0, symBinAddr: 0x100009BD8, symSize: 0x2C }
  - { offsetInCU: 0x306B0, offset: 0x306B0, size: 0x8, addend: 0x0, symName: __ZN17GetCorrespondenceD1Ev, symObjAddr: 0x730C, symBinAddr: 0x100009C04, symSize: 0x2C }
  - { offsetInCU: 0x306DC, offset: 0x306DC, size: 0x8, addend: 0x0, symName: __ZNSt3__16vectorI14CorrespondenceNS_9allocatorIS1_EEED1B8ue170006Ev, symObjAddr: 0x7338, symBinAddr: 0x100009C30, symSize: 0x2C }
  - { offsetInCU: 0x30706, offset: 0x30706, size: 0x8, addend: 0x0, symName: __ZNSt3__16vectorIP19MouseCallbackParamsNS_9allocatorIS2_EEED1B8ue170006Ev, symObjAddr: 0x7364, symBinAddr: 0x100009C5C, symSize: 0x2C }
  - { offsetInCU: 0x30730, offset: 0x30730, size: 0x8, addend: 0x0, symName: __ZN2cv7MatExprD2Ev, symObjAddr: 0x7390, symBinAddr: 0x100009C88, symSize: 0x48 }
  - { offsetInCU: 0x3075D, offset: 0x3075D, size: 0x8, addend: 0x0, symName: __ZN2cv11_InputArrayC2ERKNS_3MatE, symObjAddr: 0x73D8, symBinAddr: 0x100009CD0, symSize: 0x44 }
  - { offsetInCU: 0x30797, offset: 0x30797, size: 0x8, addend: 0x0, symName: __ZN2cv5Size_IiEC1Ev, symObjAddr: 0x741C, symBinAddr: 0x100009D14, symSize: 0x2C }
  - { offsetInCU: 0x307C3, offset: 0x307C3, size: 0x8, addend: 0x0, symName: __ZN2cv11_InputArray4initEiPKv, symObjAddr: 0x7448, symBinAddr: 0x100009D40, symSize: 0x2C }
  - { offsetInCU: 0x30807, offset: 0x30807, size: 0x8, addend: 0x0, symName: __ZN2cv5Size_IiEC2Ev, symObjAddr: 0x7474, symBinAddr: 0x100009D6C, symSize: 0x1C }
  - { offsetInCU: 0x30833, offset: 0x30833, size: 0x8, addend: 0x0, symName: __ZN2cv12_OutputArrayC2ERNS_3MatE, symObjAddr: 0x7490, symBinAddr: 0x100009D88, symSize: 0x40 }
  - { offsetInCU: 0x3086D, offset: 0x3086D, size: 0x8, addend: 0x0, symName: __ZN2cv11_InputArrayC2Ev, symObjAddr: 0x74D0, symBinAddr: 0x100009DC8, symSize: 0x40 }
  - { offsetInCU: 0x30899, offset: 0x30899, size: 0x8, addend: 0x0, symName: __ZN2cv12_OutputArrayD2Ev, symObjAddr: 0x7510, symBinAddr: 0x100009E08, symSize: 0x2C }
  - { offsetInCU: 0x308C6, offset: 0x308C6, size: 0x8, addend: 0x0, symName: __ZN2cv11_InputArrayD2Ev, symObjAddr: 0x753C, symBinAddr: 0x100009E34, symSize: 0x14 }
  - { offsetInCU: 0x308F2, offset: 0x308F2, size: 0x8, addend: 0x0, symName: __ZNSt3__114basic_ofstreamIcNS_11char_traitsIcEEED2Ev, symObjAddr: 0x7550, symBinAddr: 0x100009E48, symSize: 0x64 }
  - { offsetInCU: 0x3092C, offset: 0x3092C, size: 0x8, addend: 0x0, symName: __ZTv0_n24_NSt3__114basic_ofstreamIcNS_11char_traitsIcEEED1Ev, symObjAddr: 0x75B4, symBinAddr: 0x100009EAC, symSize: 0x28 }
  - { offsetInCU: 0x30943, offset: 0x30943, size: 0x8, addend: 0x0, symName: __ZN2cv12_OutputArrayC2ERKNS_3MatE, symObjAddr: 0x75DC, symBinAddr: 0x100009ED4, symSize: 0x40 }
  - { offsetInCU: 0x3097F, offset: 0x3097F, size: 0x8, addend: 0x0, symName: __ZN2cv5RangeC1Eii, symObjAddr: 0x761C, symBinAddr: 0x100009F14, symSize: 0x3C }
  - { offsetInCU: 0x309C9, offset: 0x309C9, size: 0x8, addend: 0x0, symName: __ZN2cv5Range3allEv, symObjAddr: 0x7658, symBinAddr: 0x100009F50, symSize: 0x2C }
  - { offsetInCU: 0x309DF, offset: 0x309DF, size: 0x8, addend: 0x0, symName: __ZN2cv5RangeC2Eii, symObjAddr: 0x7684, symBinAddr: 0x100009F7C, symSize: 0x2C }
  - { offsetInCU: 0x30A29, offset: 0x30A29, size: 0x8, addend: 0x0, symName: __ZNKSt3__111__wrap_iterIP14CorrespondenceE4baseB8ue170006Ev, symObjAddr: 0x76F8, symBinAddr: 0x100009FF0, symSize: 0x18 }
  - { offsetInCU: 0x30A4F, offset: 0x30A4F, size: 0x8, addend: 0x0, symName: __ZN19MouseCallbackParamsC2Ev, symObjAddr: 0x7710, symBinAddr: 0x10000A008, symSize: 0x44 }
  - { offsetInCU: 0x30A7B, offset: 0x30A7B, size: 0x8, addend: 0x0, symName: __ZNSt3__16vectorI9DataPointNS_9allocatorIS1_EEEC1B8ue170006Ev, symObjAddr: 0x7754, symBinAddr: 0x10000A04C, symSize: 0x2C }
  - { offsetInCU: 0x30AA5, offset: 0x30AA5, size: 0x8, addend: 0x0, symName: __ZNSt3__112basic_stringIcNS_11char_traitsIcEENS_9allocatorIcEEEC1B8ue170006Ev, symObjAddr: 0x7780, symBinAddr: 0x10000A078, symSize: 0x2C }
  - { offsetInCU: 0x30ACF, offset: 0x30ACF, size: 0x8, addend: 0x0, symName: __ZNSt3__16vectorI9DataPointNS_9allocatorIS1_EEEC2B8ue170006Ev, symObjAddr: 0x77AC, symBinAddr: 0x10000A0A4, symSize: 0x4C }
  - { offsetInCU: 0x30B03, offset: 0x30B03, size: 0x8, addend: 0x0, symName: __ZNSt3__117__compressed_pairIP9DataPointNS_9allocatorIS1_EEEC1B8ue170006IDnNS_18__default_init_tagEEEOT_OT0_, symObjAddr: 0x77F8, symBinAddr: 0x10000A0F0, symSize: 0x3C }
  - { offsetInCU: 0x30B5B, offset: 0x30B5B, size: 0x8, addend: 0x0, symName: __ZNSt3__117__compressed_pairIP9DataPointNS_9allocatorIS1_EEEC2B8ue170006IDnNS_18__default_init_tagEEEOT_OT0_, symObjAddr: 0x7840, symBinAddr: 0x10000A138, symSize: 0x40 }
  - { offsetInCU: 0x30BB3, offset: 0x30BB3, size: 0x8, addend: 0x0, symName: __ZNSt3__122__compressed_pair_elemIP9DataPointLi0ELb0EEC2B8ue170006IDnvEEOT_, symObjAddr: 0x7880, symBinAddr: 0x10000A178, symSize: 0x1C }
  - { offsetInCU: 0x30BF5, offset: 0x30BF5, size: 0x8, addend: 0x0, symName: __ZNSt3__122__compressed_pair_elemINS_9allocatorI9DataPointEELi1ELb1EEC2B8ue170006ENS_18__default_init_tagE, symObjAddr: 0x789C, symBinAddr: 0x10000A194, symSize: 0x2C }
  - { offsetInCU: 0x30C2A, offset: 0x30C2A, size: 0x8, addend: 0x0, symName: __ZNSt3__19allocatorI9DataPointEC2B8ue170006Ev, symObjAddr: 0x78C8, symBinAddr: 0x10000A1C0, symSize: 0x2C }
  - { offsetInCU: 0x30C54, offset: 0x30C54, size: 0x8, addend: 0x0, symName: __ZNSt3__116__non_trivial_ifILb1ENS_9allocatorI9DataPointEEEC2B8ue170006Ev, symObjAddr: 0x78F4, symBinAddr: 0x10000A1EC, symSize: 0x14 }
  - { offsetInCU: 0x30C7E, offset: 0x30C7E, size: 0x8, addend: 0x0, symName: __ZNSt3__112basic_stringIcNS_11char_traitsIcEENS_9allocatorIcEEEC2B8ue170006Ev, symObjAddr: 0x7908, symBinAddr: 0x10000A200, symSize: 0x48 }
  - { offsetInCU: 0x30CA8, offset: 0x30CA8, size: 0x8, addend: 0x0, symName: __ZNSt3__117__compressed_pairINS_12basic_stringIcNS_11char_traitsIcEENS_9allocatorIcEEE5__repES5_EC1B8ue170006INS_18__default_init_tagESA_EEOT_OT0_, symObjAddr: 0x7950, symBinAddr: 0x10000A248, symSize: 0x3C }
  - { offsetInCU: 0x30D00, offset: 0x30D00, size: 0x8, addend: 0x0, symName: __ZNSt3__112basic_stringIcNS_11char_traitsIcEENS_9allocatorIcEEE14__default_initB8ue170006Ev, symObjAddr: 0x798C, symBinAddr: 0x10000A284, symSize: 0x40 }
  - { offsetInCU: 0x30D26, offset: 0x30D26, size: 0x8, addend: 0x0, symName: __ZNSt3__117__compressed_pairINS_12basic_stringIcNS_11char_traitsIcEENS_9allocatorIcEEE5__repES5_EC2B8ue170006INS_18__default_init_tagESA_EEOT_OT0_, symObjAddr: 0x79CC, symBinAddr: 0x10000A2C4, symSize: 0x3C }
  - { offsetInCU: 0x30D7E, offset: 0x30D7E, size: 0x8, addend: 0x0, symName: __ZNSt3__122__compressed_pair_elemINS_12basic_stringIcNS_11char_traitsIcEENS_9allocatorIcEEE5__repELi0ELb0EEC2B8ue170006ENS_18__default_init_tagE, symObjAddr: 0x7A08, symBinAddr: 0x10000A300, symSize: 0x14 }
  - { offsetInCU: 0x30DB3, offset: 0x30DB3, size: 0x8, addend: 0x0, symName: __ZNSt3__122__compressed_pair_elemINS_9allocatorIcEELi1ELb1EEC2B8ue170006ENS_18__default_init_tagE, symObjAddr: 0x7A1C, symBinAddr: 0x10000A314, symSize: 0x2C }
  - { offsetInCU: 0x30DE8, offset: 0x30DE8, size: 0x8, addend: 0x0, symName: __ZNSt3__19allocatorIcEC2B8ue170006Ev, symObjAddr: 0x7A48, symBinAddr: 0x10000A340, symSize: 0x2C }
  - { offsetInCU: 0x30E12, offset: 0x30E12, size: 0x8, addend: 0x0, symName: __ZNSt3__116__non_trivial_ifILb1ENS_9allocatorIcEEEC2B8ue170006Ev, symObjAddr: 0x7A74, symBinAddr: 0x10000A36C, symSize: 0x14 }
  - { offsetInCU: 0x30E3C, offset: 0x30E3C, size: 0x8, addend: 0x0, symName: __ZNSt3__117__compressed_pairINS_12basic_stringIcNS_11char_traitsIcEENS_9allocatorIcEEE5__repES5_E5firstB8ue170006Ev, symObjAddr: 0x7A88, symBinAddr: 0x10000A380, symSize: 0x24 }
  - { offsetInCU: 0x30E62, offset: 0x30E62, size: 0x8, addend: 0x0, symName: __ZNSt3__122__compressed_pair_elemINS_12basic_stringIcNS_11char_traitsIcEENS_9allocatorIcEEE5__repELi0ELb0EE5__getB8ue170006Ev, symObjAddr: 0x7AAC, symBinAddr: 0x10000A3A4, symSize: 0x14 }
  - { offsetInCU: 0x30E88, offset: 0x30E88, size: 0x8, addend: 0x0, symName: __ZNKSt3__111__wrap_iterIP9DataPointE4baseB8ue170006Ev, symObjAddr: 0x7B08, symBinAddr: 0x10000A400, symSize: 0x18 }
  - { offsetInCU: 0x30EAE, offset: 0x30EAE, size: 0x8, addend: 0x0, symName: __ZN2cv4Mat_IdED2Ev, symObjAddr: 0x7B20, symBinAddr: 0x10000A418, symSize: 0x2C }
  - { offsetInCU: 0x30EDB, offset: 0x30EDB, size: 0x8, addend: 0x0, symName: __ZN17GetCorrespondenceD2Ev, symObjAddr: 0x7B4C, symBinAddr: 0x10000A444, symSize: 0x38 }
  - { offsetInCU: 0x30F07, offset: 0x30F07, size: 0x8, addend: 0x0, symName: __ZNSt3__112basic_stringIcNS_11char_traitsIcEENS_9allocatorIcEEEC2B8ue170006ILi0EEEPKc, symObjAddr: 0x7B84, symBinAddr: 0x10000A47C, symSize: 0x58 }
  - { offsetInCU: 0x30F46, offset: 0x30F46, size: 0x8, addend: 0x0, symName: __ZNSt3__111char_traitsIcE6lengthB8ue170006EPKc, symObjAddr: 0x7BDC, symBinAddr: 0x10000A4D4, symSize: 0x34 }
  - { offsetInCU: 0x30F87, offset: 0x30F87, size: 0x8, addend: 0x0, symName: __ZNKSt3__113basic_ostreamIcNS_11char_traitsIcEEE6sentrycvbB8ue170006Ev, symObjAddr: 0x7E20, symBinAddr: 0x10000A718, symSize: 0x1C }
  - { offsetInCU: 0x30FAD, offset: 0x30FAD, size: 0x8, addend: 0x0, symName: __ZNSt3__119ostreambuf_iteratorIcNS_11char_traitsIcEEEC1B8ue170006ERNS_13basic_ostreamIcS2_EE, symObjAddr: 0x807C, symBinAddr: 0x10000A974, symSize: 0x34 }
  - { offsetInCU: 0x30FE5, offset: 0x30FE5, size: 0x8, addend: 0x0, symName: __ZNKSt3__18ios_base5flagsB8ue170006Ev, symObjAddr: 0x80B0, symBinAddr: 0x10000A9A8, symSize: 0x18 }
  - { offsetInCU: 0x3100D, offset: 0x3100D, size: 0x8, addend: 0x0, symName: __ZNKSt3__19basic_iosIcNS_11char_traitsIcEEE4fillB8ue170006Ev, symObjAddr: 0x80C8, symBinAddr: 0x10000A9C0, symSize: 0x64 }
  - { offsetInCU: 0x31035, offset: 0x31035, size: 0x8, addend: 0x0, symName: __ZNKSt3__119ostreambuf_iteratorIcNS_11char_traitsIcEEE6failedB8ue170006Ev, symObjAddr: 0x812C, symBinAddr: 0x10000AA24, symSize: 0x24 }
  - { offsetInCU: 0x3105B, offset: 0x3105B, size: 0x8, addend: 0x0, symName: __ZNSt3__19basic_iosIcNS_11char_traitsIcEEE8setstateB8ue170006Ej, symObjAddr: 0x8150, symBinAddr: 0x10000AA48, symSize: 0x2C }
  - { offsetInCU: 0x31090, offset: 0x31090, size: 0x8, addend: 0x0, symName: __ZNKSt3__18ios_base5widthB8ue170006Ev, symObjAddr: 0x817C, symBinAddr: 0x10000AA74, symSize: 0x18 }
  - { offsetInCU: 0x310B8, offset: 0x310B8, size: 0x8, addend: 0x0, symName: __ZNSt3__115basic_streambufIcNS_11char_traitsIcEEE5sputnB8ue170006EPKcl, symObjAddr: 0x8194, symBinAddr: 0x10000AA8C, symSize: 0x3C }
  - { offsetInCU: 0x310FA, offset: 0x310FA, size: 0x8, addend: 0x0, symName: __ZNSt3__112basic_stringIcNS_11char_traitsIcEENS_9allocatorIcEEEC1B8ue170006Emc, symObjAddr: 0x81D0, symBinAddr: 0x10000AAC8, symSize: 0x3C }
  - { offsetInCU: 0x31142, offset: 0x31142, size: 0x8, addend: 0x0, symName: __ZNKSt3__112basic_stringIcNS_11char_traitsIcEENS_9allocatorIcEEE4dataB8ue170006Ev, symObjAddr: 0x820C, symBinAddr: 0x10000AB04, symSize: 0x28 }
  - { offsetInCU: 0x31168, offset: 0x31168, size: 0x8, addend: 0x0, symName: __ZNSt3__18ios_base5widthB8ue170006El, symObjAddr: 0x8234, symBinAddr: 0x10000AB2C, symSize: 0x2C }
  - { offsetInCU: 0x311AE, offset: 0x311AE, size: 0x8, addend: 0x0, symName: __ZNSt3__112basic_stringIcNS_11char_traitsIcEENS_9allocatorIcEEEC2B8ue170006Emc, symObjAddr: 0x8260, symBinAddr: 0x10000AB58, symSize: 0x4C }
  - { offsetInCU: 0x311F6, offset: 0x311F6, size: 0x8, addend: 0x0, symName: __ZNKSt3__112basic_stringIcNS_11char_traitsIcEENS_9allocatorIcEEE13__get_pointerB8ue170006Ev, symObjAddr: 0x82C0, symBinAddr: 0x10000ABB8, symSize: 0x54 }
  - { offsetInCU: 0x3121C, offset: 0x3121C, size: 0x8, addend: 0x0, symName: __ZNKSt3__112basic_stringIcNS_11char_traitsIcEENS_9allocatorIcEEE9__is_longB8ue170006Ev, symObjAddr: 0x8314, symBinAddr: 0x10000AC0C, symSize: 0x38 }
  - { offsetInCU: 0x31242, offset: 0x31242, size: 0x8, addend: 0x0, symName: __ZNKSt3__112basic_stringIcNS_11char_traitsIcEENS_9allocatorIcEEE18__get_long_pointerB8ue170006Ev, symObjAddr: 0x834C, symBinAddr: 0x10000AC44, symSize: 0x28 }
  - { offsetInCU: 0x31268, offset: 0x31268, size: 0x8, addend: 0x0, symName: __ZNKSt3__112basic_stringIcNS_11char_traitsIcEENS_9allocatorIcEEE19__get_short_pointerB8ue170006Ev, symObjAddr: 0x8374, symBinAddr: 0x10000AC6C, symSize: 0x28 }
  - { offsetInCU: 0x3128E, offset: 0x3128E, size: 0x8, addend: 0x0, symName: __ZNKSt3__117__compressed_pairINS_12basic_stringIcNS_11char_traitsIcEENS_9allocatorIcEEE5__repES5_E5firstB8ue170006Ev, symObjAddr: 0x839C, symBinAddr: 0x10000AC94, symSize: 0x24 }
  - { offsetInCU: 0x312B4, offset: 0x312B4, size: 0x8, addend: 0x0, symName: __ZNKSt3__122__compressed_pair_elemINS_12basic_stringIcNS_11char_traitsIcEENS_9allocatorIcEEE5__repELi0ELb0EE5__getB8ue170006Ev, symObjAddr: 0x83C0, symBinAddr: 0x10000ACB8, symSize: 0x14 }
  - { offsetInCU: 0x312DA, offset: 0x312DA, size: 0x8, addend: 0x0, symName: __ZNSt3__114pointer_traitsIPKcE10pointer_toB8ue170006ERS1_, symObjAddr: 0x83D4, symBinAddr: 0x10000ACCC, symSize: 0x14 }
  - { offsetInCU: 0x312FD, offset: 0x312FD, size: 0x8, addend: 0x0, symName: __ZNSt3__119ostreambuf_iteratorIcNS_11char_traitsIcEEEC2B8ue170006ERNS_13basic_ostreamIcS2_EE, symObjAddr: 0x83E8, symBinAddr: 0x10000ACE0, symSize: 0x54 }
  - { offsetInCU: 0x31335, offset: 0x31335, size: 0x8, addend: 0x0, symName: __ZNKSt3__19basic_iosIcNS_11char_traitsIcEEE5rdbufB8ue170006Ev, symObjAddr: 0x843C, symBinAddr: 0x10000AD34, symSize: 0x24 }
  - { offsetInCU: 0x3135D, offset: 0x3135D, size: 0x8, addend: 0x0, symName: __ZNKSt3__18ios_base5rdbufB8ue170006Ev, symObjAddr: 0x8460, symBinAddr: 0x10000AD58, symSize: 0x18 }
  - { offsetInCU: 0x31383, offset: 0x31383, size: 0x8, addend: 0x0, symName: __ZNSt3__111char_traitsIcE11eq_int_typeB8ue170006Eii, symObjAddr: 0x8478, symBinAddr: 0x10000AD70, symSize: 0x28 }
  - { offsetInCU: 0x313B6, offset: 0x313B6, size: 0x8, addend: 0x0, symName: __ZNSt3__111char_traitsIcE3eofB8ue170006Ev, symObjAddr: 0x84A0, symBinAddr: 0x10000AD98, symSize: 0x8 }
  - { offsetInCU: 0x313CA, offset: 0x313CA, size: 0x8, addend: 0x0, symName: __ZNKSt3__19basic_iosIcNS_11char_traitsIcEEE5widenB8ue170006Ec, symObjAddr: 0x84A8, symBinAddr: 0x10000ADA0, symSize: 0x84 }
  - { offsetInCU: 0x31433, offset: 0x31433, size: 0x8, addend: 0x0, symName: __ZNKSt3__15ctypeIcE5widenB8ue170006Ec, symObjAddr: 0x8558, symBinAddr: 0x10000AE50, symSize: 0x38 }
  - { offsetInCU: 0x31468, offset: 0x31468, size: 0x8, addend: 0x0, symName: __ZNSt3__18ios_base8setstateB8ue170006Ej, symObjAddr: 0x8590, symBinAddr: 0x10000AE88, symSize: 0x34 }
  - { offsetInCU: 0x3149F, offset: 0x3149F, size: 0x8, addend: 0x0, symName: __ZNKSt3__112basic_stringIcNS_11char_traitsIcEENS_9allocatorIcEEE4sizeB8ue170006Ev, symObjAddr: 0x85C4, symBinAddr: 0x10000AEBC, symSize: 0x54 }
  - { offsetInCU: 0x314C5, offset: 0x314C5, size: 0x8, addend: 0x0, symName: __ZNKSt3__112basic_stringIcNS_11char_traitsIcEENS_9allocatorIcEEE15__get_long_sizeB8ue170006Ev, symObjAddr: 0x8618, symBinAddr: 0x10000AF10, symSize: 0x28 }
  - { offsetInCU: 0x314EB, offset: 0x314EB, size: 0x8, addend: 0x0, symName: __ZNKSt3__112basic_stringIcNS_11char_traitsIcEENS_9allocatorIcEEE16__get_short_sizeB8ue170006Ev, symObjAddr: 0x8640, symBinAddr: 0x10000AF38, symSize: 0x34 }
  - { offsetInCU: 0x31511, offset: 0x31511, size: 0x8, addend: 0x0, symName: __ZN2cv5Rect_IiEC2Eiiii, symObjAddr: 0x8674, symBinAddr: 0x10000AF6C, symSize: 0x44 }
  - { offsetInCU: 0x31579, offset: 0x31579, size: 0x8, addend: 0x0, symName: __ZNSt3__16vectorINS_4pairIiiEENS_9allocatorIS2_EEED2B8ue170006Ev, symObjAddr: 0x86B8, symBinAddr: 0x10000AFB0, symSize: 0x44 }
  - { offsetInCU: 0x315A3, offset: 0x315A3, size: 0x8, addend: 0x0, symName: __ZNSt3__16vectorINS_4pairIiiEENS_9allocatorIS2_EEE16__destroy_vectorC1B8ue170006ERS5_, symObjAddr: 0x86FC, symBinAddr: 0x10000AFF4, symSize: 0x34 }
  - { offsetInCU: 0x315DC, offset: 0x315DC, size: 0x8, addend: 0x0, symName: __ZNSt3__16vectorINS_4pairIiiEENS_9allocatorIS2_EEE16__destroy_vectorclB8ue170006Ev, symObjAddr: 0x8730, symBinAddr: 0x10000B028, symSize: 0x90 }
  - { offsetInCU: 0x31602, offset: 0x31602, size: 0x8, addend: 0x0, symName: __ZNSt3__16vectorINS_4pairIiiEENS_9allocatorIS2_EEE16__destroy_vectorC2B8ue170006ERS5_, symObjAddr: 0x87C0, symBinAddr: 0x10000B0B8, symSize: 0x20 }
  - { offsetInCU: 0x3163B, offset: 0x3163B, size: 0x8, addend: 0x0, symName: __ZNSt3__16vectorINS_4pairIiiEENS_9allocatorIS2_EEE7__clearB8ue170006Ev, symObjAddr: 0x87E0, symBinAddr: 0x10000B0D8, symSize: 0x28 }
  - { offsetInCU: 0x31661, offset: 0x31661, size: 0x8, addend: 0x0, symName: __ZNKSt3__16vectorINS_4pairIiiEENS_9allocatorIS2_EEE17__annotate_deleteB8ue170006Ev, symObjAddr: 0x8808, symBinAddr: 0x10000B100, symSize: 0xB8 }
  - { offsetInCU: 0x31687, offset: 0x31687, size: 0x8, addend: 0x0, symName: __ZNSt3__116allocator_traitsINS_9allocatorINS_4pairIiiEEEEE10deallocateB8ue170006ERS4_PS3_m, symObjAddr: 0x88C0, symBinAddr: 0x10000B1B8, symSize: 0x34 }
  - { offsetInCU: 0x316C9, offset: 0x316C9, size: 0x8, addend: 0x0, symName: __ZNSt3__16vectorINS_4pairIiiEENS_9allocatorIS2_EEE7__allocB8ue170006Ev, symObjAddr: 0x88F4, symBinAddr: 0x10000B1EC, symSize: 0x28 }
  - { offsetInCU: 0x316EF, offset: 0x316EF, size: 0x8, addend: 0x0, symName: __ZNKSt3__16vectorINS_4pairIiiEENS_9allocatorIS2_EEE8capacityB8ue170006Ev, symObjAddr: 0x891C, symBinAddr: 0x10000B214, symSize: 0x40 }
  - { offsetInCU: 0x31715, offset: 0x31715, size: 0x8, addend: 0x0, symName: __ZNSt3__16vectorINS_4pairIiiEENS_9allocatorIS2_EEE22__base_destruct_at_endB8ue170006EPS2_, symObjAddr: 0x895C, symBinAddr: 0x10000B254, symSize: 0x8C }
  - { offsetInCU: 0x31759, offset: 0x31759, size: 0x8, addend: 0x0, symName: __ZNSt3__116allocator_traitsINS_9allocatorINS_4pairIiiEEEEE7destroyB8ue170006IS3_vEEvRS4_PT_, symObjAddr: 0x89E8, symBinAddr: 0x10000B2E0, symSize: 0x2C }
  - { offsetInCU: 0x31796, offset: 0x31796, size: 0x8, addend: 0x0, symName: __ZNSt3__19allocatorINS_4pairIiiEEE7destroyB8ue170006EPS2_, symObjAddr: 0x8A28, symBinAddr: 0x10000B320, symSize: 0x14 }
  - { offsetInCU: 0x317CA, offset: 0x317CA, size: 0x8, addend: 0x0, symName: __ZNKSt3__16vectorINS_4pairIiiEENS_9allocatorIS2_EEE31__annotate_contiguous_containerB8ue170006EPKvS7_S7_S7_, symObjAddr: 0x8A3C, symBinAddr: 0x10000B334, symSize: 0x20 }
  - { offsetInCU: 0x3181C, offset: 0x3181C, size: 0x8, addend: 0x0, symName: __ZNKSt3__16vectorINS_4pairIiiEENS_9allocatorIS2_EEE4dataB8ue170006Ev, symObjAddr: 0x8A5C, symBinAddr: 0x10000B354, symSize: 0x28 }
  - { offsetInCU: 0x31842, offset: 0x31842, size: 0x8, addend: 0x0, symName: __ZNKSt3__16vectorINS_4pairIiiEENS_9allocatorIS2_EEE4sizeB8ue170006Ev, symObjAddr: 0x8A84, symBinAddr: 0x10000B37C, symSize: 0x28 }
  - { offsetInCU: 0x31868, offset: 0x31868, size: 0x8, addend: 0x0, symName: __ZNSt3__19allocatorINS_4pairIiiEEE10deallocateB8ue170006EPS2_m, symObjAddr: 0x8AAC, symBinAddr: 0x10000B3A4, symSize: 0x40 }
  - { offsetInCU: 0x318AA, offset: 0x318AA, size: 0x8, addend: 0x0, symName: __ZNSt3__117__compressed_pairIPNS_4pairIiiEENS_9allocatorIS2_EEE6secondB8ue170006Ev, symObjAddr: 0x8B68, symBinAddr: 0x10000B460, symSize: 0x24 }
  - { offsetInCU: 0x318D0, offset: 0x318D0, size: 0x8, addend: 0x0, symName: __ZNSt3__122__compressed_pair_elemINS_9allocatorINS_4pairIiiEEEELi1ELb1EE5__getB8ue170006Ev, symObjAddr: 0x8B8C, symBinAddr: 0x10000B484, symSize: 0x14 }
  - { offsetInCU: 0x318F6, offset: 0x318F6, size: 0x8, addend: 0x0, symName: __ZNKSt3__16vectorINS_4pairIiiEENS_9allocatorIS2_EEE9__end_capB8ue170006Ev, symObjAddr: 0x8BA0, symBinAddr: 0x10000B498, symSize: 0x28 }
  - { offsetInCU: 0x3191C, offset: 0x3191C, size: 0x8, addend: 0x0, symName: __ZNKSt3__117__compressed_pairIPNS_4pairIiiEENS_9allocatorIS2_EEE5firstB8ue170006Ev, symObjAddr: 0x8BC8, symBinAddr: 0x10000B4C0, symSize: 0x24 }
  - { offsetInCU: 0x31942, offset: 0x31942, size: 0x8, addend: 0x0, symName: __ZNKSt3__122__compressed_pair_elemIPNS_4pairIiiEELi0ELb0EE5__getB8ue170006Ev, symObjAddr: 0x8BEC, symBinAddr: 0x10000B4E4, symSize: 0x14 }
  - { offsetInCU: 0x31968, offset: 0x31968, size: 0x8, addend: 0x0, symName: __ZN2cv3VecIhLi3EEC2ERKS1_, symObjAddr: 0x8C00, symBinAddr: 0x10000B4F8, symSize: 0x34 }
  - { offsetInCU: 0x319A3, offset: 0x319A3, size: 0x8, addend: 0x0, symName: __ZN2cv4MatxIhLi3ELi1EEC2EPKh, symObjAddr: 0x8C34, symBinAddr: 0x10000B52C, symSize: 0x74 }
  - { offsetInCU: 0x319FB, offset: 0x319FB, size: 0x8, addend: 0x0, symName: __ZNK2cv3Mat12isContinuousEv, symObjAddr: 0x8CA8, symBinAddr: 0x10000B5A0, symSize: 0x24 }
  - { offsetInCU: 0x31A24, offset: 0x31A24, size: 0x8, addend: 0x0, symName: __ZN2cv6Point_IdEC2Ev, symObjAddr: 0x8CCC, symBinAddr: 0x10000B5C4, symSize: 0x20 }
  - { offsetInCU: 0x31A50, offset: 0x31A50, size: 0x8, addend: 0x0, symName: __ZN2cv6Point_IdEC1Edd, symObjAddr: 0x8D00, symBinAddr: 0x10000B5F8, symSize: 0x3C }
  - { offsetInCU: 0x31A98, offset: 0x31A98, size: 0x8, addend: 0x0, symName: __ZN2cv6Point_IdEC2Edd, symObjAddr: 0x8D3C, symBinAddr: 0x10000B634, symSize: 0x2C }
  - { offsetInCU: 0x31AE0, offset: 0x31AE0, size: 0x8, addend: 0x0, symName: __ZNSt3__19basic_iosIcNS_11char_traitsIcEEEC2B8ue170006Ev, symObjAddr: 0x8D68, symBinAddr: 0x10000B660, symSize: 0x44 }
  - { offsetInCU: 0x31B0A, offset: 0x31B0A, size: 0x8, addend: 0x0, symName: __ZNSt3__113basic_ostreamIcNS_11char_traitsIcEEEC2B8ue170006EPNS_15basic_streambufIcS2_EE, symObjAddr: 0x8DAC, symBinAddr: 0x10000B6A4, symSize: 0x60 }
  - { offsetInCU: 0x31B4F, offset: 0x31B4F, size: 0x8, addend: 0x0, symName: __ZNSt3__113basic_filebufIcNS_11char_traitsIcEEE4openERKNS_12basic_stringIcS2_NS_9allocatorIcEEEEj, symObjAddr: 0x8E0C, symBinAddr: 0x10000B704, symSize: 0x44 }
  - { offsetInCU: 0x31B93, offset: 0x31B93, size: 0x8, addend: 0x0, symName: __ZNSt3__18ios_baseC2B8ue170006Ev, symObjAddr: 0x8E50, symBinAddr: 0x10000B748, symSize: 0x24 }
  - { offsetInCU: 0x31BBD, offset: 0x31BBD, size: 0x8, addend: 0x0, symName: __ZNSt3__19basic_iosIcNS_11char_traitsIcEEE4initB8ue170006EPNS_15basic_streambufIcS2_EE, symObjAddr: 0x8E74, symBinAddr: 0x10000B76C, symSize: 0x44 }
  - { offsetInCU: 0x31BF4, offset: 0x31BF4, size: 0x8, addend: 0x0, symName: __ZNKSt3__112basic_stringIcNS_11char_traitsIcEENS_9allocatorIcEEE5c_strB8ue170006Ev, symObjAddr: 0x8EB8, symBinAddr: 0x10000B7B0, symSize: 0x24 }
  - { offsetInCU: 0x31C1A, offset: 0x31C1A, size: 0x8, addend: 0x0, symName: __ZNKSt3__113basic_filebufIcNS_11char_traitsIcEEE7is_openEv, symObjAddr: 0x8EDC, symBinAddr: 0x10000B7D4, symSize: 0x24 }
  - { offsetInCU: 0x31C42, offset: 0x31C42, size: 0x8, addend: 0x0, symName: __ZNSt3__14pairIiiEC2B8ue170006IiiLPv0EEEOT_OT0_, symObjAddr: 0x8F00, symBinAddr: 0x10000B7F8, symSize: 0x34 }
  - { offsetInCU: 0x31CA0, offset: 0x31CA0, size: 0x8, addend: 0x0, symName: __ZNSt3__16vectorINS_4pairIiiEENS_9allocatorIS2_EEEC2B8ue170006ESt16initializer_listIS2_E, symObjAddr: 0x8F34, symBinAddr: 0x10000B82C, symSize: 0x120 }
  - { offsetInCU: 0x31CF0, offset: 0x31CF0, size: 0x8, addend: 0x0, symName: __ZNSt3__117__compressed_pairIPNS_4pairIiiEENS_9allocatorIS2_EEEC1B8ue170006IDnNS_18__default_init_tagEEEOT_OT0_, symObjAddr: 0x9054, symBinAddr: 0x10000B94C, symSize: 0x3C }
  - { offsetInCU: 0x31D48, offset: 0x31D48, size: 0x8, addend: 0x0, symName: __ZNKSt16initializer_listINSt3__14pairIiiEEE4sizeB8ue170006Ev, symObjAddr: 0x90D0, symBinAddr: 0x10000B9C8, symSize: 0x18 }
  - { offsetInCU: 0x31D6E, offset: 0x31D6E, size: 0x8, addend: 0x0, symName: __ZNSt3__16vectorINS_4pairIiiEENS_9allocatorIS2_EEE11__vallocateB8ue170006Em, symObjAddr: 0x90E8, symBinAddr: 0x10000B9E0, symSize: 0xAC }
  - { offsetInCU: 0x31DB2, offset: 0x31DB2, size: 0x8, addend: 0x0, symName: __ZNSt3__16vectorINS_4pairIiiEENS_9allocatorIS2_EEE18__construct_at_endIPKS2_S8_EEvT_T0_m, symObjAddr: 0x9194, symBinAddr: 0x10000BA8C, symSize: 0x8C }
  - { offsetInCU: 0x31E28, offset: 0x31E28, size: 0x8, addend: 0x0, symName: __ZNKSt16initializer_listINSt3__14pairIiiEEE5beginB8ue170006Ev, symObjAddr: 0x9220, symBinAddr: 0x10000BB18, symSize: 0x18 }
  - { offsetInCU: 0x31E4E, offset: 0x31E4E, size: 0x8, addend: 0x0, symName: __ZNKSt16initializer_listINSt3__14pairIiiEEE3endB8ue170006Ev, symObjAddr: 0x9238, symBinAddr: 0x10000BB30, symSize: 0x20 }
  - { offsetInCU: 0x31E74, offset: 0x31E74, size: 0x8, addend: 0x0, symName: __ZNSt3__128__exception_guard_exceptionsINS_6vectorINS_4pairIiiEENS_9allocatorIS3_EEE16__destroy_vectorEE10__completeB8ue170006Ev, symObjAddr: 0x9258, symBinAddr: 0x10000BB50, symSize: 0x1C }
  - { offsetInCU: 0x31E9A, offset: 0x31E9A, size: 0x8, addend: 0x0, symName: __ZNSt3__128__exception_guard_exceptionsINS_6vectorINS_4pairIiiEENS_9allocatorIS3_EEE16__destroy_vectorEED1B8ue170006Ev, symObjAddr: 0x9274, symBinAddr: 0x10000BB6C, symSize: 0x2C }
  - { offsetInCU: 0x31EC4, offset: 0x31EC4, size: 0x8, addend: 0x0, symName: __ZNSt3__117__compressed_pairIPNS_4pairIiiEENS_9allocatorIS2_EEEC2B8ue170006IDnNS_18__default_init_tagEEEOT_OT0_, symObjAddr: 0x92A0, symBinAddr: 0x10000BB98, symSize: 0x40 }
  - { offsetInCU: 0x31F1C, offset: 0x31F1C, size: 0x8, addend: 0x0, symName: __ZNSt3__122__compressed_pair_elemIPNS_4pairIiiEELi0ELb0EEC2B8ue170006IDnvEEOT_, symObjAddr: 0x92E0, symBinAddr: 0x10000BBD8, symSize: 0x1C }
  - { offsetInCU: 0x31F5E, offset: 0x31F5E, size: 0x8, addend: 0x0, symName: __ZNSt3__122__compressed_pair_elemINS_9allocatorINS_4pairIiiEEEELi1ELb1EEC2B8ue170006ENS_18__default_init_tagE, symObjAddr: 0x92FC, symBinAddr: 0x10000BBF4, symSize: 0x2C }
  - { offsetInCU: 0x31F93, offset: 0x31F93, size: 0x8, addend: 0x0, symName: __ZNSt3__19allocatorINS_4pairIiiEEEC2B8ue170006Ev, symObjAddr: 0x9328, symBinAddr: 0x10000BC20, symSize: 0x2C }
  - { offsetInCU: 0x31FBD, offset: 0x31FBD, size: 0x8, addend: 0x0, symName: __ZNSt3__116__non_trivial_ifILb1ENS_9allocatorINS_4pairIiiEEEEEC2B8ue170006Ev, symObjAddr: 0x9354, symBinAddr: 0x10000BC4C, symSize: 0x14 }
  - { offsetInCU: 0x31FE7, offset: 0x31FE7, size: 0x8, addend: 0x0, symName: __ZNSt3__128__exception_guard_exceptionsINS_6vectorINS_4pairIiiEENS_9allocatorIS3_EEE16__destroy_vectorEEC1B8ue170006ES7_, symObjAddr: 0x9368, symBinAddr: 0x10000BC60, symSize: 0x34 }
  - { offsetInCU: 0x3201F, offset: 0x3201F, size: 0x8, addend: 0x0, symName: __ZNSt3__128__exception_guard_exceptionsINS_6vectorINS_4pairIiiEENS_9allocatorIS3_EEE16__destroy_vectorEEC2B8ue170006ES7_, symObjAddr: 0x939C, symBinAddr: 0x10000BC94, symSize: 0x24 }
  - { offsetInCU: 0x32057, offset: 0x32057, size: 0x8, addend: 0x0, symName: __ZNKSt3__16vectorINS_4pairIiiEENS_9allocatorIS2_EEE8max_sizeEv, symObjAddr: 0x93C0, symBinAddr: 0x10000BCB8, symSize: 0x60 }
  - { offsetInCU: 0x3207F, offset: 0x3207F, size: 0x8, addend: 0x0, symName: __ZNKSt3__16vectorINS_4pairIiiEENS_9allocatorIS2_EEE20__throw_length_errorB8ue170006Ev, symObjAddr: 0x9420, symBinAddr: 0x10000BD18, symSize: 0x1C }
  - { offsetInCU: 0x320A5, offset: 0x320A5, size: 0x8, addend: 0x0, symName: __ZNSt3__16vectorINS_4pairIiiEENS_9allocatorIS2_EEE9__end_capB8ue170006Ev, symObjAddr: 0x947C, symBinAddr: 0x10000BD74, symSize: 0x28 }
  - { offsetInCU: 0x320CB, offset: 0x320CB, size: 0x8, addend: 0x0, symName: __ZNKSt3__16vectorINS_4pairIiiEENS_9allocatorIS2_EEE14__annotate_newB8ue170006Em, symObjAddr: 0x94A4, symBinAddr: 0x10000BD9C, symSize: 0xAC }
  - { offsetInCU: 0x3210A, offset: 0x3210A, size: 0x8, addend: 0x0, symName: __ZNSt3__116allocator_traitsINS_9allocatorINS_4pairIiiEEEEE8max_sizeB8ue170006IS4_vEEmRKS4_, symObjAddr: 0x957C, symBinAddr: 0x10000BE74, symSize: 0x24 }
  - { offsetInCU: 0x32138, offset: 0x32138, size: 0x8, addend: 0x0, symName: __ZNKSt3__16vectorINS_4pairIiiEENS_9allocatorIS2_EEE7__allocB8ue170006Ev, symObjAddr: 0x95A0, symBinAddr: 0x10000BE98, symSize: 0x28 }
  - { offsetInCU: 0x3215E, offset: 0x3215E, size: 0x8, addend: 0x0, symName: __ZNSt3__114numeric_limitsIlE3maxB8ue170006Ev, symObjAddr: 0x95C8, symBinAddr: 0x10000BEC0, symSize: 0x14 }
  - { offsetInCU: 0x3217C, offset: 0x3217C, size: 0x8, addend: 0x0, symName: __ZNKSt3__16__lessIvvEclB8ue170006ImmEEbRKT_RKT0_, symObjAddr: 0x9630, symBinAddr: 0x10000BF28, symSize: 0x34 }
  - { offsetInCU: 0x321D0, offset: 0x321D0, size: 0x8, addend: 0x0, symName: __ZNKSt3__19allocatorINS_4pairIiiEEE8max_sizeB8ue170006Ev, symObjAddr: 0x9664, symBinAddr: 0x10000BF5C, symSize: 0x14 }
  - { offsetInCU: 0x321F6, offset: 0x321F6, size: 0x8, addend: 0x0, symName: __ZNKSt3__117__compressed_pairIPNS_4pairIiiEENS_9allocatorIS2_EEE6secondB8ue170006Ev, symObjAddr: 0x9678, symBinAddr: 0x10000BF70, symSize: 0x24 }
  - { offsetInCU: 0x3221C, offset: 0x3221C, size: 0x8, addend: 0x0, symName: __ZNKSt3__122__compressed_pair_elemINS_9allocatorINS_4pairIiiEEEELi1ELb1EE5__getB8ue170006Ev, symObjAddr: 0x969C, symBinAddr: 0x10000BF94, symSize: 0x14 }
  - { offsetInCU: 0x32242, offset: 0x32242, size: 0x8, addend: 0x0, symName: __ZNSt3__123__libcpp_numeric_limitsIlLb1EE3maxB8ue170006Ev, symObjAddr: 0x96B0, symBinAddr: 0x10000BFA8, symSize: 0x8 }
  - { offsetInCU: 0x32256, offset: 0x32256, size: 0x8, addend: 0x0, symName: __ZNSt12length_errorC1B8ue170006EPKc, symObjAddr: 0x971C, symBinAddr: 0x10000C014, symSize: 0x34 }
  - { offsetInCU: 0x3228E, offset: 0x3228E, size: 0x8, addend: 0x0, symName: __ZNSt12length_errorC2B8ue170006EPKc, symObjAddr: 0x9750, symBinAddr: 0x10000C048, symSize: 0x4C }
  - { offsetInCU: 0x322C6, offset: 0x322C6, size: 0x8, addend: 0x0, symName: __ZNSt3__19allocatorINS_4pairIiiEEE8allocateB8ue170006Em, symObjAddr: 0x979C, symBinAddr: 0x10000C094, symSize: 0x58 }
  - { offsetInCU: 0x322FA, offset: 0x322FA, size: 0x8, addend: 0x0, symName: __ZNSt3__117__compressed_pairIPNS_4pairIiiEENS_9allocatorIS2_EEE5firstB8ue170006Ev, symObjAddr: 0x9874, symBinAddr: 0x10000C16C, symSize: 0x24 }
  - { offsetInCU: 0x32320, offset: 0x32320, size: 0x8, addend: 0x0, symName: __ZNSt3__122__compressed_pair_elemIPNS_4pairIiiEELi0ELb0EE5__getB8ue170006Ev, symObjAddr: 0x9898, symBinAddr: 0x10000C190, symSize: 0x14 }
  - { offsetInCU: 0x3235F, offset: 0x3235F, size: 0x8, addend: 0x0, symName: __ZNSt3__16vectorINS_4pairIiiEENS_9allocatorIS2_EEE21_ConstructTransactionC1B8ue170006ERS5_m, symObjAddr: 0x98AC, symBinAddr: 0x10000C1A4, symSize: 0x3C }
  - { offsetInCU: 0x323A7, offset: 0x323A7, size: 0x8, addend: 0x0, symName: __ZNSt3__16vectorINS_4pairIiiEENS_9allocatorIS2_EEE21_ConstructTransactionD1B8ue170006Ev, symObjAddr: 0x9968, symBinAddr: 0x10000C260, symSize: 0x2C }
  - { offsetInCU: 0x323D1, offset: 0x323D1, size: 0x8, addend: 0x0, symName: __ZNSt3__16vectorINS_4pairIiiEENS_9allocatorIS2_EEE21_ConstructTransactionC2B8ue170006ERS5_m, symObjAddr: 0x9994, symBinAddr: 0x10000C28C, symSize: 0x44 }
  - { offsetInCU: 0x32437, offset: 0x32437, size: 0x8, addend: 0x0, symName: __ZNSt3__14pairIPKNS0_IiiEES3_EC1B8ue170006IS3_S3_LPv0EEEOT_OT0_, symObjAddr: 0x9BE8, symBinAddr: 0x10000C4E0, symSize: 0x3C }
  - { offsetInCU: 0x32495, offset: 0x32495, size: 0x8, addend: 0x0, symName: __ZNSt3__14pairIPKNS0_IiiEES3_EC2B8ue170006IS3_S3_LPv0EEEOT_OT0_, symObjAddr: 0x9C24, symBinAddr: 0x10000C51C, symSize: 0x34 }
  - { offsetInCU: 0x324F3, offset: 0x324F3, size: 0x8, addend: 0x0, symName: __ZNSt3__118__unwrap_iter_implIPKNS_4pairIiiEELb1EE8__unwrapB8ue170006ES4_, symObjAddr: 0x9C58, symBinAddr: 0x10000C550, symSize: 0x24 }
  - { offsetInCU: 0x32516, offset: 0x32516, size: 0x8, addend: 0x0, symName: __ZNSt3__129_AllocatorDestroyRangeReverseINS_9allocatorINS_4pairIiiEEEEPS3_EC1B8ue170006ERS4_RS5_S8_, symObjAddr: 0x9CDC, symBinAddr: 0x10000C5D4, symSize: 0x44 }
  - { offsetInCU: 0x3256D, offset: 0x3256D, size: 0x8, addend: 0x0, symName: __ZNSt3__116allocator_traitsINS_9allocatorINS_4pairIiiEEEEE9constructB8ue170006IS3_JRKS3_EvEEvRS4_PT_DpOT0_, symObjAddr: 0x9D20, symBinAddr: 0x10000C618, symSize: 0x34 }
  - { offsetInCU: 0x325C4, offset: 0x325C4, size: 0x8, addend: 0x0, symName: __ZNSt3__128__exception_guard_exceptionsINS_29_AllocatorDestroyRangeReverseINS_9allocatorINS_4pairIiiEEEEPS4_EEE10__completeB8ue170006Ev, symObjAddr: 0x9D54, symBinAddr: 0x10000C64C, symSize: 0x1C }
  - { offsetInCU: 0x325EA, offset: 0x325EA, size: 0x8, addend: 0x0, symName: __ZNSt3__128__exception_guard_exceptionsINS_29_AllocatorDestroyRangeReverseINS_9allocatorINS_4pairIiiEEEEPS4_EEED1B8ue170006Ev, symObjAddr: 0x9D70, symBinAddr: 0x10000C668, symSize: 0x2C }
  - { offsetInCU: 0x32614, offset: 0x32614, size: 0x8, addend: 0x0, symName: __ZNSt3__128__exception_guard_exceptionsINS_29_AllocatorDestroyRangeReverseINS_9allocatorINS_4pairIiiEEEEPS4_EEEC1B8ue170006ES7_, symObjAddr: 0x9D9C, symBinAddr: 0x10000C694, symSize: 0x34 }
  - { offsetInCU: 0x3264D, offset: 0x3264D, size: 0x8, addend: 0x0, symName: __ZNSt3__128__exception_guard_exceptionsINS_29_AllocatorDestroyRangeReverseINS_9allocatorINS_4pairIiiEEEEPS4_EEEC2B8ue170006ES7_, symObjAddr: 0x9DD0, symBinAddr: 0x10000C6C8, symSize: 0x30 }
  - { offsetInCU: 0x32686, offset: 0x32686, size: 0x8, addend: 0x0, symName: __ZNSt3__129_AllocatorDestroyRangeReverseINS_9allocatorINS_4pairIiiEEEEPS3_EC2B8ue170006ERS4_RS5_S8_, symObjAddr: 0x9E00, symBinAddr: 0x10000C6F8, symSize: 0x38 }
  - { offsetInCU: 0x326DD, offset: 0x326DD, size: 0x8, addend: 0x0, symName: __ZNSt3__19allocatorINS_4pairIiiEEE9constructB8ue170006IS2_JRKS2_EEEvPT_DpOT0_, symObjAddr: 0x9E38, symBinAddr: 0x10000C730, symSize: 0x28 }
  - { offsetInCU: 0x32733, offset: 0x32733, size: 0x8, addend: 0x0, symName: __ZNSt3__128__exception_guard_exceptionsINS_29_AllocatorDestroyRangeReverseINS_9allocatorINS_4pairIiiEEEEPS4_EEED2B8ue170006Ev, symObjAddr: 0x9E60, symBinAddr: 0x10000C758, symSize: 0x50 }
  - { offsetInCU: 0x3275D, offset: 0x3275D, size: 0x8, addend: 0x0, symName: __ZNKSt3__129_AllocatorDestroyRangeReverseINS_9allocatorINS_4pairIiiEEEEPS3_EclB8ue170006Ev, symObjAddr: 0x9EB0, symBinAddr: 0x10000C7A8, symSize: 0x68 }
  - { offsetInCU: 0x32783, offset: 0x32783, size: 0x8, addend: 0x0, symName: __ZNSt3__116reverse_iteratorIPNS_4pairIiiEEEC1B8ue170006ES3_, symObjAddr: 0x9F88, symBinAddr: 0x10000C880, symSize: 0x34 }
  - { offsetInCU: 0x327BB, offset: 0x327BB, size: 0x8, addend: 0x0, symName: __ZNSt3__116reverse_iteratorIPNS_4pairIiiEEEppB8ue170006Ev, symObjAddr: 0xA028, symBinAddr: 0x10000C920, symSize: 0x20 }
  - { offsetInCU: 0x327E1, offset: 0x327E1, size: 0x8, addend: 0x0, symName: __ZNKSt3__116reverse_iteratorIPNS_4pairIiiEEE4baseB8ue170006Ev, symObjAddr: 0xA048, symBinAddr: 0x10000C940, symSize: 0x18 }
  - { offsetInCU: 0x3280C, offset: 0x3280C, size: 0x8, addend: 0x0, symName: __ZNSt3__119__to_address_helperINS_16reverse_iteratorIPNS_4pairIiiEEEEvE6__callB8ue170006ERKS5_, symObjAddr: 0xA060, symBinAddr: 0x10000C958, symSize: 0x38 }
  - { offsetInCU: 0x3282F, offset: 0x3282F, size: 0x8, addend: 0x0, symName: __ZNKSt3__116reverse_iteratorIPNS_4pairIiiEEEptB8ue170006Ev, symObjAddr: 0xA098, symBinAddr: 0x10000C990, symSize: 0x24 }
  - { offsetInCU: 0x32855, offset: 0x32855, size: 0x8, addend: 0x0, symName: __ZNKSt3__116reverse_iteratorIPNS_4pairIiiEEEdeB8ue170006Ev, symObjAddr: 0xA0BC, symBinAddr: 0x10000C9B4, symSize: 0x28 }
  - { offsetInCU: 0x32889, offset: 0x32889, size: 0x8, addend: 0x0, symName: __ZNSt3__116reverse_iteratorIPNS_4pairIiiEEEC2B8ue170006ES3_, symObjAddr: 0xA0E4, symBinAddr: 0x10000C9DC, symSize: 0x28 }
  - { offsetInCU: 0x328C1, offset: 0x328C1, size: 0x8, addend: 0x0, symName: __ZNSt3__118__unwrap_iter_implIPNS_4pairIiiEELb1EE8__unwrapB8ue170006ES3_, symObjAddr: 0xA10C, symBinAddr: 0x10000CA04, symSize: 0x24 }
  - { offsetInCU: 0x328E4, offset: 0x328E4, size: 0x8, addend: 0x0, symName: __ZNSt3__118__unwrap_iter_implIPNS_4pairIiiEELb1EE8__rewrapB8ue170006ES3_S3_, symObjAddr: 0xA130, symBinAddr: 0x10000CA28, symSize: 0x50 }
  - { offsetInCU: 0x32915, offset: 0x32915, size: 0x8, addend: 0x0, symName: __ZNSt3__16vectorINS_4pairIiiEENS_9allocatorIS2_EEE21_ConstructTransactionD2B8ue170006Ev, symObjAddr: 0xA180, symBinAddr: 0x10000CA78, symSize: 0x20 }
  - { offsetInCU: 0x3293F, offset: 0x3293F, size: 0x8, addend: 0x0, symName: __ZNSt3__128__exception_guard_exceptionsINS_6vectorINS_4pairIiiEENS_9allocatorIS3_EEE16__destroy_vectorEED2B8ue170006Ev, symObjAddr: 0xA1A0, symBinAddr: 0x10000CA98, symSize: 0x48 }
  - { offsetInCU: 0x32969, offset: 0x32969, size: 0x8, addend: 0x0, symName: __ZNSt3__16vectorIP19MouseCallbackParamsNS_9allocatorIS2_EEEC2B8ue170006Ev, symObjAddr: 0xA244, symBinAddr: 0x10000CB3C, symSize: 0x4C }
  - { offsetInCU: 0x32993, offset: 0x32993, size: 0x8, addend: 0x0, symName: __ZNSt3__117__compressed_pairIPP19MouseCallbackParamsNS_9allocatorIS2_EEEC1B8ue170006IDnNS_18__default_init_tagEEEOT_OT0_, symObjAddr: 0xA290, symBinAddr: 0x10000CB88, symSize: 0x3C }
  - { offsetInCU: 0x329EB, offset: 0x329EB, size: 0x8, addend: 0x0, symName: __ZNSt3__117__compressed_pairIPP19MouseCallbackParamsNS_9allocatorIS2_EEEC2B8ue170006IDnNS_18__default_init_tagEEEOT_OT0_, symObjAddr: 0xA2CC, symBinAddr: 0x10000CBC4, symSize: 0x40 }
  - { offsetInCU: 0x32A43, offset: 0x32A43, size: 0x8, addend: 0x0, symName: __ZNSt3__122__compressed_pair_elemIPP19MouseCallbackParamsLi0ELb0EEC2B8ue170006IDnvEEOT_, symObjAddr: 0xA30C, symBinAddr: 0x10000CC04, symSize: 0x1C }
  - { offsetInCU: 0x32A85, offset: 0x32A85, size: 0x8, addend: 0x0, symName: __ZNSt3__122__compressed_pair_elemINS_9allocatorIP19MouseCallbackParamsEELi1ELb1EEC2B8ue170006ENS_18__default_init_tagE, symObjAddr: 0xA328, symBinAddr: 0x10000CC20, symSize: 0x2C }
  - { offsetInCU: 0x32ABA, offset: 0x32ABA, size: 0x8, addend: 0x0, symName: __ZNSt3__19allocatorIP19MouseCallbackParamsEC2B8ue170006Ev, symObjAddr: 0xA354, symBinAddr: 0x10000CC4C, symSize: 0x2C }
  - { offsetInCU: 0x32AE4, offset: 0x32AE4, size: 0x8, addend: 0x0, symName: __ZNSt3__116__non_trivial_ifILb1ENS_9allocatorIP19MouseCallbackParamsEEEC2B8ue170006Ev, symObjAddr: 0xA380, symBinAddr: 0x10000CC78, symSize: 0x14 }
  - { offsetInCU: 0x32B0E, offset: 0x32B0E, size: 0x8, addend: 0x0, symName: __ZNSt3__16vectorIP19MouseCallbackParamsNS_9allocatorIS2_EEED2B8ue170006Ev, symObjAddr: 0xA394, symBinAddr: 0x10000CC8C, symSize: 0x44 }
  - { offsetInCU: 0x32B38, offset: 0x32B38, size: 0x8, addend: 0x0, symName: __ZNSt3__16vectorIP19MouseCallbackParamsNS_9allocatorIS2_EEE16__destroy_vectorC1B8ue170006ERS5_, symObjAddr: 0xA3D8, symBinAddr: 0x10000CCD0, symSize: 0x34 }
  - { offsetInCU: 0x32B71, offset: 0x32B71, size: 0x8, addend: 0x0, symName: __ZNSt3__16vectorIP19MouseCallbackParamsNS_9allocatorIS2_EEE16__destroy_vectorclB8ue170006Ev, symObjAddr: 0xA40C, symBinAddr: 0x10000CD04, symSize: 0x90 }
  - { offsetInCU: 0x32B97, offset: 0x32B97, size: 0x8, addend: 0x0, symName: __ZNSt3__16vectorIP19MouseCallbackParamsNS_9allocatorIS2_EEE16__destroy_vectorC2B8ue170006ERS5_, symObjAddr: 0xA49C, symBinAddr: 0x10000CD94, symSize: 0x20 }
  - { offsetInCU: 0x32BD0, offset: 0x32BD0, size: 0x8, addend: 0x0, symName: __ZNSt3__16vectorIP19MouseCallbackParamsNS_9allocatorIS2_EEE7__clearB8ue170006Ev, symObjAddr: 0xA4BC, symBinAddr: 0x10000CDB4, symSize: 0x28 }
  - { offsetInCU: 0x32BF6, offset: 0x32BF6, size: 0x8, addend: 0x0, symName: __ZNKSt3__16vectorIP19MouseCallbackParamsNS_9allocatorIS2_EEE17__annotate_deleteB8ue170006Ev, symObjAddr: 0xA4E4, symBinAddr: 0x10000CDDC, symSize: 0xB8 }
  - { offsetInCU: 0x32C1C, offset: 0x32C1C, size: 0x8, addend: 0x0, symName: __ZNSt3__116allocator_traitsINS_9allocatorIP19MouseCallbackParamsEEE10deallocateB8ue170006ERS4_PS3_m, symObjAddr: 0xA59C, symBinAddr: 0x10000CE94, symSize: 0x34 }
  - { offsetInCU: 0x32C5E, offset: 0x32C5E, size: 0x8, addend: 0x0, symName: __ZNSt3__16vectorIP19MouseCallbackParamsNS_9allocatorIS2_EEE7__allocB8ue170006Ev, symObjAddr: 0xA5D0, symBinAddr: 0x10000CEC8, symSize: 0x28 }
  - { offsetInCU: 0x32C84, offset: 0x32C84, size: 0x8, addend: 0x0, symName: __ZNKSt3__16vectorIP19MouseCallbackParamsNS_9allocatorIS2_EEE8capacityB8ue170006Ev, symObjAddr: 0xA5F8, symBinAddr: 0x10000CEF0, symSize: 0x40 }
  - { offsetInCU: 0x32CAA, offset: 0x32CAA, size: 0x8, addend: 0x0, symName: __ZNSt3__16vectorIP19MouseCallbackParamsNS_9allocatorIS2_EEE22__base_destruct_at_endB8ue170006EPS2_, symObjAddr: 0xA638, symBinAddr: 0x10000CF30, symSize: 0x8C }
  - { offsetInCU: 0x32CEE, offset: 0x32CEE, size: 0x8, addend: 0x0, symName: __ZNSt3__116allocator_traitsINS_9allocatorIP19MouseCallbackParamsEEE7destroyB8ue170006IS3_vEEvRS4_PT_, symObjAddr: 0xA6C4, symBinAddr: 0x10000CFBC, symSize: 0x2C }
  - { offsetInCU: 0x32D2B, offset: 0x32D2B, size: 0x8, addend: 0x0, symName: __ZNSt3__19allocatorIP19MouseCallbackParamsE7destroyB8ue170006EPS2_, symObjAddr: 0xA704, symBinAddr: 0x10000CFFC, symSize: 0x14 }
  - { offsetInCU: 0x32D5F, offset: 0x32D5F, size: 0x8, addend: 0x0, symName: __ZNKSt3__16vectorIP19MouseCallbackParamsNS_9allocatorIS2_EEE31__annotate_contiguous_containerB8ue170006EPKvS7_S7_S7_, symObjAddr: 0xA718, symBinAddr: 0x10000D010, symSize: 0x20 }
  - { offsetInCU: 0x32DB1, offset: 0x32DB1, size: 0x8, addend: 0x0, symName: __ZNKSt3__16vectorIP19MouseCallbackParamsNS_9allocatorIS2_EEE4dataB8ue170006Ev, symObjAddr: 0xA738, symBinAddr: 0x10000D030, symSize: 0x28 }
  - { offsetInCU: 0x32DD7, offset: 0x32DD7, size: 0x8, addend: 0x0, symName: __ZNKSt3__16vectorIP19MouseCallbackParamsNS_9allocatorIS2_EEE4sizeB8ue170006Ev, symObjAddr: 0xA760, symBinAddr: 0x10000D058, symSize: 0x28 }
  - { offsetInCU: 0x32DFD, offset: 0x32DFD, size: 0x8, addend: 0x0, symName: __ZNSt3__19allocatorIP19MouseCallbackParamsE10deallocateB8ue170006EPS2_m, symObjAddr: 0xA788, symBinAddr: 0x10000D080, symSize: 0x40 }
  - { offsetInCU: 0x32E3F, offset: 0x32E3F, size: 0x8, addend: 0x0, symName: __ZNSt3__117__compressed_pairIPP19MouseCallbackParamsNS_9allocatorIS2_EEE6secondB8ue170006Ev, symObjAddr: 0xA7C8, symBinAddr: 0x10000D0C0, symSize: 0x24 }
  - { offsetInCU: 0x32E65, offset: 0x32E65, size: 0x8, addend: 0x0, symName: __ZNSt3__122__compressed_pair_elemINS_9allocatorIP19MouseCallbackParamsEELi1ELb1EE5__getB8ue170006Ev, symObjAddr: 0xA7EC, symBinAddr: 0x10000D0E4, symSize: 0x14 }
  - { offsetInCU: 0x32E8B, offset: 0x32E8B, size: 0x8, addend: 0x0, symName: __ZNKSt3__16vectorIP19MouseCallbackParamsNS_9allocatorIS2_EEE9__end_capB8ue170006Ev, symObjAddr: 0xA800, symBinAddr: 0x10000D0F8, symSize: 0x28 }
  - { offsetInCU: 0x32EB1, offset: 0x32EB1, size: 0x8, addend: 0x0, symName: __ZNKSt3__117__compressed_pairIPP19MouseCallbackParamsNS_9allocatorIS2_EEE5firstB8ue170006Ev, symObjAddr: 0xA828, symBinAddr: 0x10000D120, symSize: 0x24 }
  - { offsetInCU: 0x32ED7, offset: 0x32ED7, size: 0x8, addend: 0x0, symName: __ZNKSt3__122__compressed_pair_elemIPP19MouseCallbackParamsLi0ELb0EE5__getB8ue170006Ev, symObjAddr: 0xA84C, symBinAddr: 0x10000D144, symSize: 0x14 }
  - { offsetInCU: 0x32EFD, offset: 0x32EFD, size: 0x8, addend: 0x0, symName: __ZNSt3__16vectorIN2cv7Point3_IfEENS_9allocatorIS3_EEEC2B8ue170006Ev, symObjAddr: 0xA860, symBinAddr: 0x10000D158, symSize: 0x4C }
  - { offsetInCU: 0x32F27, offset: 0x32F27, size: 0x8, addend: 0x0, symName: __ZNSt3__117__compressed_pairIPN2cv7Point3_IfEENS_9allocatorIS3_EEEC1B8ue170006IDnNS_18__default_init_tagEEEOT_OT0_, symObjAddr: 0xA8AC, symBinAddr: 0x10000D1A4, symSize: 0x3C }
  - { offsetInCU: 0x32F7F, offset: 0x32F7F, size: 0x8, addend: 0x0, symName: __ZNSt3__117__compressed_pairIPN2cv7Point3_IfEENS_9allocatorIS3_EEEC2B8ue170006IDnNS_18__default_init_tagEEEOT_OT0_, symObjAddr: 0xA8E8, symBinAddr: 0x10000D1E0, symSize: 0x40 }
  - { offsetInCU: 0x32FD7, offset: 0x32FD7, size: 0x8, addend: 0x0, symName: __ZNSt3__122__compressed_pair_elemIPN2cv7Point3_IfEELi0ELb0EEC2B8ue170006IDnvEEOT_, symObjAddr: 0xA928, symBinAddr: 0x10000D220, symSize: 0x1C }
  - { offsetInCU: 0x33019, offset: 0x33019, size: 0x8, addend: 0x0, symName: __ZNSt3__122__compressed_pair_elemINS_9allocatorIN2cv7Point3_IfEEEELi1ELb1EEC2B8ue170006ENS_18__default_init_tagE, symObjAddr: 0xA944, symBinAddr: 0x10000D23C, symSize: 0x2C }
  - { offsetInCU: 0x3304E, offset: 0x3304E, size: 0x8, addend: 0x0, symName: __ZNSt3__19allocatorIN2cv7Point3_IfEEEC2B8ue170006Ev, symObjAddr: 0xA970, symBinAddr: 0x10000D268, symSize: 0x2C }
  - { offsetInCU: 0x33078, offset: 0x33078, size: 0x8, addend: 0x0, symName: __ZNSt3__116__non_trivial_ifILb1ENS_9allocatorIN2cv7Point3_IfEEEEEC2B8ue170006Ev, symObjAddr: 0xA99C, symBinAddr: 0x10000D294, symSize: 0x14 }
  - { offsetInCU: 0x330A2, offset: 0x330A2, size: 0x8, addend: 0x0, symName: __ZNSt3__16vectorIN2cv7Point3_IfEENS_9allocatorIS3_EEED2B8ue170006Ev, symObjAddr: 0xA9B0, symBinAddr: 0x10000D2A8, symSize: 0x44 }
  - { offsetInCU: 0x330CC, offset: 0x330CC, size: 0x8, addend: 0x0, symName: __ZNSt3__16vectorIN2cv7Point3_IfEENS_9allocatorIS3_EEE16__destroy_vectorC1B8ue170006ERS6_, symObjAddr: 0xA9F4, symBinAddr: 0x10000D2EC, symSize: 0x34 }
  - { offsetInCU: 0x33105, offset: 0x33105, size: 0x8, addend: 0x0, symName: __ZNSt3__16vectorIN2cv7Point3_IfEENS_9allocatorIS3_EEE16__destroy_vectorclB8ue170006Ev, symObjAddr: 0xAA28, symBinAddr: 0x10000D320, symSize: 0x90 }
  - { offsetInCU: 0x3312B, offset: 0x3312B, size: 0x8, addend: 0x0, symName: __ZNSt3__16vectorIN2cv7Point3_IfEENS_9allocatorIS3_EEE16__destroy_vectorC2B8ue170006ERS6_, symObjAddr: 0xAAB8, symBinAddr: 0x10000D3B0, symSize: 0x20 }
  - { offsetInCU: 0x33164, offset: 0x33164, size: 0x8, addend: 0x0, symName: __ZNSt3__16vectorIN2cv7Point3_IfEENS_9allocatorIS3_EEE7__clearB8ue170006Ev, symObjAddr: 0xAAD8, symBinAddr: 0x10000D3D0, symSize: 0x28 }
  - { offsetInCU: 0x3318A, offset: 0x3318A, size: 0x8, addend: 0x0, symName: __ZNKSt3__16vectorIN2cv7Point3_IfEENS_9allocatorIS3_EEE17__annotate_deleteB8ue170006Ev, symObjAddr: 0xAB00, symBinAddr: 0x10000D3F8, symSize: 0xD4 }
  - { offsetInCU: 0x331B0, offset: 0x331B0, size: 0x8, addend: 0x0, symName: __ZNSt3__116allocator_traitsINS_9allocatorIN2cv7Point3_IfEEEEE10deallocateB8ue170006ERS5_PS4_m, symObjAddr: 0xABD4, symBinAddr: 0x10000D4CC, symSize: 0x34 }
  - { offsetInCU: 0x331F2, offset: 0x331F2, size: 0x8, addend: 0x0, symName: __ZNSt3__16vectorIN2cv7Point3_IfEENS_9allocatorIS3_EEE7__allocB8ue170006Ev, symObjAddr: 0xAC08, symBinAddr: 0x10000D500, symSize: 0x28 }
  - { offsetInCU: 0x33218, offset: 0x33218, size: 0x8, addend: 0x0, symName: __ZNKSt3__16vectorIN2cv7Point3_IfEENS_9allocatorIS3_EEE8capacityB8ue170006Ev, symObjAddr: 0xAC30, symBinAddr: 0x10000D528, symSize: 0x40 }
  - { offsetInCU: 0x3323E, offset: 0x3323E, size: 0x8, addend: 0x0, symName: __ZNSt3__16vectorIN2cv7Point3_IfEENS_9allocatorIS3_EEE22__base_destruct_at_endB8ue170006EPS3_, symObjAddr: 0xAC70, symBinAddr: 0x10000D568, symSize: 0x8C }
  - { offsetInCU: 0x33282, offset: 0x33282, size: 0x8, addend: 0x0, symName: __ZNSt3__116allocator_traitsINS_9allocatorIN2cv7Point3_IfEEEEE7destroyB8ue170006IS4_vEEvRS5_PT_, symObjAddr: 0xACFC, symBinAddr: 0x10000D5F4, symSize: 0x2C }
  - { offsetInCU: 0x332BF, offset: 0x332BF, size: 0x8, addend: 0x0, symName: __ZNSt3__19allocatorIN2cv7Point3_IfEEE7destroyB8ue170006EPS3_, symObjAddr: 0xAD3C, symBinAddr: 0x10000D634, symSize: 0x14 }
  - { offsetInCU: 0x332F3, offset: 0x332F3, size: 0x8, addend: 0x0, symName: __ZNKSt3__16vectorIN2cv7Point3_IfEENS_9allocatorIS3_EEE31__annotate_contiguous_containerB8ue170006EPKvS8_S8_S8_, symObjAddr: 0xAD50, symBinAddr: 0x10000D648, symSize: 0x20 }
  - { offsetInCU: 0x33345, offset: 0x33345, size: 0x8, addend: 0x0, symName: __ZNKSt3__16vectorIN2cv7Point3_IfEENS_9allocatorIS3_EEE4dataB8ue170006Ev, symObjAddr: 0xAD70, symBinAddr: 0x10000D668, symSize: 0x28 }
  - { offsetInCU: 0x3336B, offset: 0x3336B, size: 0x8, addend: 0x0, symName: __ZNKSt3__16vectorIN2cv7Point3_IfEENS_9allocatorIS3_EEE4sizeB8ue170006Ev, symObjAddr: 0xAD98, symBinAddr: 0x10000D690, symSize: 0x28 }
  - { offsetInCU: 0x33391, offset: 0x33391, size: 0x8, addend: 0x0, symName: __ZNSt3__19allocatorIN2cv7Point3_IfEEE10deallocateB8ue170006EPS3_m, symObjAddr: 0xADC0, symBinAddr: 0x10000D6B8, symSize: 0x44 }
  - { offsetInCU: 0x333D3, offset: 0x333D3, size: 0x8, addend: 0x0, symName: __ZNSt3__117__compressed_pairIPN2cv7Point3_IfEENS_9allocatorIS3_EEE6secondB8ue170006Ev, symObjAddr: 0xAE04, symBinAddr: 0x10000D6FC, symSize: 0x24 }
  - { offsetInCU: 0x333F9, offset: 0x333F9, size: 0x8, addend: 0x0, symName: __ZNSt3__122__compressed_pair_elemINS_9allocatorIN2cv7Point3_IfEEEELi1ELb1EE5__getB8ue170006Ev, symObjAddr: 0xAE28, symBinAddr: 0x10000D720, symSize: 0x14 }
  - { offsetInCU: 0x3341F, offset: 0x3341F, size: 0x8, addend: 0x0, symName: __ZNKSt3__16vectorIN2cv7Point3_IfEENS_9allocatorIS3_EEE9__end_capB8ue170006Ev, symObjAddr: 0xAE3C, symBinAddr: 0x10000D734, symSize: 0x28 }
  - { offsetInCU: 0x33445, offset: 0x33445, size: 0x8, addend: 0x0, symName: __ZNKSt3__117__compressed_pairIPN2cv7Point3_IfEENS_9allocatorIS3_EEE5firstB8ue170006Ev, symObjAddr: 0xAE64, symBinAddr: 0x10000D75C, symSize: 0x24 }
  - { offsetInCU: 0x3346B, offset: 0x3346B, size: 0x8, addend: 0x0, symName: __ZNKSt3__122__compressed_pair_elemIPN2cv7Point3_IfEELi0ELb0EE5__getB8ue170006Ev, symObjAddr: 0xAE88, symBinAddr: 0x10000D780, symSize: 0x14 }
  - { offsetInCU: 0x33491, offset: 0x33491, size: 0x8, addend: 0x0, symName: __ZNSt3__16vectorI14CorrespondenceNS_9allocatorIS1_EEEC2B8ue170006Ev, symObjAddr: 0xAE9C, symBinAddr: 0x10000D794, symSize: 0x4C }
  - { offsetInCU: 0x334BB, offset: 0x334BB, size: 0x8, addend: 0x0, symName: __ZNSt3__117__compressed_pairIP14CorrespondenceNS_9allocatorIS1_EEEC1B8ue170006IDnNS_18__default_init_tagEEEOT_OT0_, symObjAddr: 0xAEE8, symBinAddr: 0x10000D7E0, symSize: 0x3C }
  - { offsetInCU: 0x33513, offset: 0x33513, size: 0x8, addend: 0x0, symName: __ZNSt3__117__compressed_pairIP14CorrespondenceNS_9allocatorIS1_EEEC2B8ue170006IDnNS_18__default_init_tagEEEOT_OT0_, symObjAddr: 0xAF24, symBinAddr: 0x10000D81C, symSize: 0x40 }
  - { offsetInCU: 0x3356B, offset: 0x3356B, size: 0x8, addend: 0x0, symName: __ZNSt3__122__compressed_pair_elemIP14CorrespondenceLi0ELb0EEC2B8ue170006IDnvEEOT_, symObjAddr: 0xAF64, symBinAddr: 0x10000D85C, symSize: 0x1C }
  - { offsetInCU: 0x335AD, offset: 0x335AD, size: 0x8, addend: 0x0, symName: __ZNSt3__122__compressed_pair_elemINS_9allocatorI14CorrespondenceEELi1ELb1EEC2B8ue170006ENS_18__default_init_tagE, symObjAddr: 0xAF80, symBinAddr: 0x10000D878, symSize: 0x2C }
  - { offsetInCU: 0x335E2, offset: 0x335E2, size: 0x8, addend: 0x0, symName: __ZNSt3__19allocatorI14CorrespondenceEC2B8ue170006Ev, symObjAddr: 0xAFAC, symBinAddr: 0x10000D8A4, symSize: 0x2C }
  - { offsetInCU: 0x3360C, offset: 0x3360C, size: 0x8, addend: 0x0, symName: __ZNSt3__116__non_trivial_ifILb1ENS_9allocatorI14CorrespondenceEEEC2B8ue170006Ev, symObjAddr: 0xAFD8, symBinAddr: 0x10000D8D0, symSize: 0x14 }
  - { offsetInCU: 0x33636, offset: 0x33636, size: 0x8, addend: 0x0, symName: __ZNSt3__16vectorI14CorrespondenceNS_9allocatorIS1_EEED2B8ue170006Ev, symObjAddr: 0xAFEC, symBinAddr: 0x10000D8E4, symSize: 0x44 }
  - { offsetInCU: 0x33660, offset: 0x33660, size: 0x8, addend: 0x0, symName: __ZNSt3__16vectorI14CorrespondenceNS_9allocatorIS1_EEE16__destroy_vectorC1B8ue170006ERS4_, symObjAddr: 0xB030, symBinAddr: 0x10000D928, symSize: 0x34 }
  - { offsetInCU: 0x33699, offset: 0x33699, size: 0x8, addend: 0x0, symName: __ZNSt3__16vectorI14CorrespondenceNS_9allocatorIS1_EEE16__destroy_vectorclB8ue170006Ev, symObjAddr: 0xB064, symBinAddr: 0x10000D95C, symSize: 0x90 }
  - { offsetInCU: 0x336BF, offset: 0x336BF, size: 0x8, addend: 0x0, symName: __ZNSt3__16vectorI14CorrespondenceNS_9allocatorIS1_EEE16__destroy_vectorC2B8ue170006ERS4_, symObjAddr: 0xB0F4, symBinAddr: 0x10000D9EC, symSize: 0x20 }
  - { offsetInCU: 0x336F8, offset: 0x336F8, size: 0x8, addend: 0x0, symName: __ZNSt3__16vectorI14CorrespondenceNS_9allocatorIS1_EEE7__clearB8ue170006Ev, symObjAddr: 0xB114, symBinAddr: 0x10000DA0C, symSize: 0x28 }
  - { offsetInCU: 0x3371E, offset: 0x3371E, size: 0x8, addend: 0x0, symName: __ZNKSt3__16vectorI14CorrespondenceNS_9allocatorIS1_EEE17__annotate_deleteB8ue170006Ev, symObjAddr: 0xB13C, symBinAddr: 0x10000DA34, symSize: 0xB8 }
  - { offsetInCU: 0x33744, offset: 0x33744, size: 0x8, addend: 0x0, symName: __ZNSt3__116allocator_traitsINS_9allocatorI14CorrespondenceEEE10deallocateB8ue170006ERS3_PS2_m, symObjAddr: 0xB1F4, symBinAddr: 0x10000DAEC, symSize: 0x34 }
  - { offsetInCU: 0x33786, offset: 0x33786, size: 0x8, addend: 0x0, symName: __ZNSt3__16vectorI14CorrespondenceNS_9allocatorIS1_EEE7__allocB8ue170006Ev, symObjAddr: 0xB228, symBinAddr: 0x10000DB20, symSize: 0x28 }
  - { offsetInCU: 0x337AC, offset: 0x337AC, size: 0x8, addend: 0x0, symName: __ZNKSt3__16vectorI14CorrespondenceNS_9allocatorIS1_EEE8capacityB8ue170006Ev, symObjAddr: 0xB250, symBinAddr: 0x10000DB48, symSize: 0x40 }
  - { offsetInCU: 0x337D2, offset: 0x337D2, size: 0x8, addend: 0x0, symName: __ZNSt3__16vectorI14CorrespondenceNS_9allocatorIS1_EEE22__base_destruct_at_endB8ue170006EPS1_, symObjAddr: 0xB290, symBinAddr: 0x10000DB88, symSize: 0x8C }
  - { offsetInCU: 0x33816, offset: 0x33816, size: 0x8, addend: 0x0, symName: __ZNSt3__116allocator_traitsINS_9allocatorI14CorrespondenceEEE7destroyB8ue170006IS2_vEEvRS3_PT_, symObjAddr: 0xB31C, symBinAddr: 0x10000DC14, symSize: 0x2C }
  - { offsetInCU: 0x33853, offset: 0x33853, size: 0x8, addend: 0x0, symName: __ZNSt3__19allocatorI14CorrespondenceE7destroyB8ue170006EPS1_, symObjAddr: 0xB35C, symBinAddr: 0x10000DC54, symSize: 0x14 }
  - { offsetInCU: 0x33887, offset: 0x33887, size: 0x8, addend: 0x0, symName: __ZNKSt3__16vectorI14CorrespondenceNS_9allocatorIS1_EEE31__annotate_contiguous_containerB8ue170006EPKvS6_S6_S6_, symObjAddr: 0xB370, symBinAddr: 0x10000DC68, symSize: 0x20 }
  - { offsetInCU: 0x338D9, offset: 0x338D9, size: 0x8, addend: 0x0, symName: __ZNKSt3__16vectorI14CorrespondenceNS_9allocatorIS1_EEE4dataB8ue170006Ev, symObjAddr: 0xB390, symBinAddr: 0x10000DC88, symSize: 0x28 }
  - { offsetInCU: 0x338FF, offset: 0x338FF, size: 0x8, addend: 0x0, symName: __ZNSt3__19allocatorI14CorrespondenceE10deallocateB8ue170006EPS1_m, symObjAddr: 0xB3B8, symBinAddr: 0x10000DCB0, symSize: 0x40 }
  - { offsetInCU: 0x33941, offset: 0x33941, size: 0x8, addend: 0x0, symName: __ZNSt3__117__compressed_pairIP14CorrespondenceNS_9allocatorIS1_EEE6secondB8ue170006Ev, symObjAddr: 0xB3F8, symBinAddr: 0x10000DCF0, symSize: 0x24 }
  - { offsetInCU: 0x33967, offset: 0x33967, size: 0x8, addend: 0x0, symName: __ZNSt3__122__compressed_pair_elemINS_9allocatorI14CorrespondenceEELi1ELb1EE5__getB8ue170006Ev, symObjAddr: 0xB41C, symBinAddr: 0x10000DD14, symSize: 0x14 }
  - { offsetInCU: 0x3398D, offset: 0x3398D, size: 0x8, addend: 0x0, symName: __ZNKSt3__16vectorI14CorrespondenceNS_9allocatorIS1_EEE9__end_capB8ue170006Ev, symObjAddr: 0xB430, symBinAddr: 0x10000DD28, symSize: 0x28 }
  - { offsetInCU: 0x339B3, offset: 0x339B3, size: 0x8, addend: 0x0, symName: __ZNKSt3__117__compressed_pairIP14CorrespondenceNS_9allocatorIS1_EEE5firstB8ue170006Ev, symObjAddr: 0xB458, symBinAddr: 0x10000DD50, symSize: 0x24 }
  - { offsetInCU: 0x339D9, offset: 0x339D9, size: 0x8, addend: 0x0, symName: __ZNKSt3__122__compressed_pair_elemIP14CorrespondenceLi0ELb0EE5__getB8ue170006Ev, symObjAddr: 0xB47C, symBinAddr: 0x10000DD74, symSize: 0x14 }
  - { offsetInCU: 0x339FF, offset: 0x339FF, size: 0x8, addend: 0x0, symName: __ZNSt3__16vectorI14CorrespondenceNS_9allocatorIS1_EEE11__make_iterB8ue170006EPS1_, symObjAddr: 0xB490, symBinAddr: 0x10000DD88, symSize: 0x30 }
  - { offsetInCU: 0x33A34, offset: 0x33A34, size: 0x8, addend: 0x0, symName: __ZNSt3__111__wrap_iterIP14CorrespondenceEC1B8ue170006ES2_, symObjAddr: 0xB4C0, symBinAddr: 0x10000DDB8, symSize: 0x34 }
  - { offsetInCU: 0x33A6C, offset: 0x33A6C, size: 0x8, addend: 0x0, symName: __ZNSt3__111__wrap_iterIP14CorrespondenceEC2B8ue170006ES2_, symObjAddr: 0xB4F4, symBinAddr: 0x10000DDEC, symSize: 0x20 }
  - { offsetInCU: 0x33AA4, offset: 0x33AA4, size: 0x8, addend: 0x0, symName: __ZNSt3__16vectorIN2cv6Point_IiEENS_9allocatorIS3_EEEC2B8ue170006Ev, symObjAddr: 0xB514, symBinAddr: 0x10000DE0C, symSize: 0x4C }
  - { offsetInCU: 0x33ACE, offset: 0x33ACE, size: 0x8, addend: 0x0, symName: __ZNSt3__117__compressed_pairIPN2cv6Point_IiEENS_9allocatorIS3_EEEC1B8ue170006IDnNS_18__default_init_tagEEEOT_OT0_, symObjAddr: 0xB560, symBinAddr: 0x10000DE58, symSize: 0x3C }
  - { offsetInCU: 0x33B26, offset: 0x33B26, size: 0x8, addend: 0x0, symName: __ZNSt3__117__compressed_pairIPN2cv6Point_IiEENS_9allocatorIS3_EEEC2B8ue170006IDnNS_18__default_init_tagEEEOT_OT0_, symObjAddr: 0xB59C, symBinAddr: 0x10000DE94, symSize: 0x40 }
  - { offsetInCU: 0x33B7E, offset: 0x33B7E, size: 0x8, addend: 0x0, symName: __ZNSt3__122__compressed_pair_elemIPN2cv6Point_IiEELi0ELb0EEC2B8ue170006IDnvEEOT_, symObjAddr: 0xB5DC, symBinAddr: 0x10000DED4, symSize: 0x1C }
  - { offsetInCU: 0x33BC0, offset: 0x33BC0, size: 0x8, addend: 0x0, symName: __ZNSt3__122__compressed_pair_elemINS_9allocatorIN2cv6Point_IiEEEELi1ELb1EEC2B8ue170006ENS_18__default_init_tagE, symObjAddr: 0xB5F8, symBinAddr: 0x10000DEF0, symSize: 0x2C }
  - { offsetInCU: 0x33BF5, offset: 0x33BF5, size: 0x8, addend: 0x0, symName: __ZNSt3__19allocatorIN2cv6Point_IiEEEC2B8ue170006Ev, symObjAddr: 0xB624, symBinAddr: 0x10000DF1C, symSize: 0x2C }
  - { offsetInCU: 0x33C1F, offset: 0x33C1F, size: 0x8, addend: 0x0, symName: __ZNSt3__116__non_trivial_ifILb1ENS_9allocatorIN2cv6Point_IiEEEEEC2B8ue170006Ev, symObjAddr: 0xB650, symBinAddr: 0x10000DF48, symSize: 0x14 }
  - { offsetInCU: 0x33C49, offset: 0x33C49, size: 0x8, addend: 0x0, symName: __ZNSt3__16vectorIN2cv6Point_IiEENS_9allocatorIS3_EEED2B8ue170006Ev, symObjAddr: 0xB664, symBinAddr: 0x10000DF5C, symSize: 0x44 }
  - { offsetInCU: 0x33C73, offset: 0x33C73, size: 0x8, addend: 0x0, symName: __ZNSt3__16vectorIN2cv6Point_IiEENS_9allocatorIS3_EEE16__destroy_vectorC1B8ue170006ERS6_, symObjAddr: 0xB6A8, symBinAddr: 0x10000DFA0, symSize: 0x34 }
  - { offsetInCU: 0x33CAC, offset: 0x33CAC, size: 0x8, addend: 0x0, symName: __ZNSt3__16vectorIN2cv6Point_IiEENS_9allocatorIS3_EEE16__destroy_vectorclB8ue170006Ev, symObjAddr: 0xB6DC, symBinAddr: 0x10000DFD4, symSize: 0x90 }
  - { offsetInCU: 0x33CD2, offset: 0x33CD2, size: 0x8, addend: 0x0, symName: __ZNSt3__16vectorIN2cv6Point_IiEENS_9allocatorIS3_EEE16__destroy_vectorC2B8ue170006ERS6_, symObjAddr: 0xB76C, symBinAddr: 0x10000E064, symSize: 0x20 }
  - { offsetInCU: 0x33D0B, offset: 0x33D0B, size: 0x8, addend: 0x0, symName: __ZNSt3__16vectorIN2cv6Point_IiEENS_9allocatorIS3_EEE7__clearB8ue170006Ev, symObjAddr: 0xB78C, symBinAddr: 0x10000E084, symSize: 0x28 }
  - { offsetInCU: 0x33D31, offset: 0x33D31, size: 0x8, addend: 0x0, symName: __ZNKSt3__16vectorIN2cv6Point_IiEENS_9allocatorIS3_EEE17__annotate_deleteB8ue170006Ev, symObjAddr: 0xB7B4, symBinAddr: 0x10000E0AC, symSize: 0xB8 }
  - { offsetInCU: 0x33D57, offset: 0x33D57, size: 0x8, addend: 0x0, symName: __ZNSt3__116allocator_traitsINS_9allocatorIN2cv6Point_IiEEEEE10deallocateB8ue170006ERS5_PS4_m, symObjAddr: 0xB86C, symBinAddr: 0x10000E164, symSize: 0x34 }
  - { offsetInCU: 0x33D99, offset: 0x33D99, size: 0x8, addend: 0x0, symName: __ZNSt3__16vectorIN2cv6Point_IiEENS_9allocatorIS3_EEE7__allocB8ue170006Ev, symObjAddr: 0xB8A0, symBinAddr: 0x10000E198, symSize: 0x28 }
  - { offsetInCU: 0x33DBF, offset: 0x33DBF, size: 0x8, addend: 0x0, symName: __ZNKSt3__16vectorIN2cv6Point_IiEENS_9allocatorIS3_EEE8capacityB8ue170006Ev, symObjAddr: 0xB8C8, symBinAddr: 0x10000E1C0, symSize: 0x40 }
  - { offsetInCU: 0x33DE5, offset: 0x33DE5, size: 0x8, addend: 0x0, symName: __ZNSt3__16vectorIN2cv6Point_IiEENS_9allocatorIS3_EEE22__base_destruct_at_endB8ue170006EPS3_, symObjAddr: 0xB908, symBinAddr: 0x10000E200, symSize: 0x8C }
  - { offsetInCU: 0x33E29, offset: 0x33E29, size: 0x8, addend: 0x0, symName: __ZNSt3__116allocator_traitsINS_9allocatorIN2cv6Point_IiEEEEE7destroyB8ue170006IS4_vEEvRS5_PT_, symObjAddr: 0xB994, symBinAddr: 0x10000E28C, symSize: 0x2C }
  - { offsetInCU: 0x33E66, offset: 0x33E66, size: 0x8, addend: 0x0, symName: __ZNSt3__19allocatorIN2cv6Point_IiEEE7destroyB8ue170006EPS3_, symObjAddr: 0xB9D4, symBinAddr: 0x10000E2CC, symSize: 0x14 }
  - { offsetInCU: 0x33E9A, offset: 0x33E9A, size: 0x8, addend: 0x0, symName: __ZNKSt3__16vectorIN2cv6Point_IiEENS_9allocatorIS3_EEE31__annotate_contiguous_containerB8ue170006EPKvS8_S8_S8_, symObjAddr: 0xB9E8, symBinAddr: 0x10000E2E0, symSize: 0x20 }
  - { offsetInCU: 0x33EEC, offset: 0x33EEC, size: 0x8, addend: 0x0, symName: __ZNKSt3__16vectorIN2cv6Point_IiEENS_9allocatorIS3_EEE4dataB8ue170006Ev, symObjAddr: 0xBA08, symBinAddr: 0x10000E300, symSize: 0x28 }
  - { offsetInCU: 0x33F12, offset: 0x33F12, size: 0x8, addend: 0x0, symName: __ZNKSt3__16vectorIN2cv6Point_IiEENS_9allocatorIS3_EEE4sizeB8ue170006Ev, symObjAddr: 0xBA30, symBinAddr: 0x10000E328, symSize: 0x28 }
  - { offsetInCU: 0x33F38, offset: 0x33F38, size: 0x8, addend: 0x0, symName: __ZNSt3__19allocatorIN2cv6Point_IiEEE10deallocateB8ue170006EPS3_m, symObjAddr: 0xBA58, symBinAddr: 0x10000E350, symSize: 0x40 }
  - { offsetInCU: 0x33F7A, offset: 0x33F7A, size: 0x8, addend: 0x0, symName: __ZNSt3__117__compressed_pairIPN2cv6Point_IiEENS_9allocatorIS3_EEE6secondB8ue170006Ev, symObjAddr: 0xBA98, symBinAddr: 0x10000E390, symSize: 0x24 }
  - { offsetInCU: 0x33FA0, offset: 0x33FA0, size: 0x8, addend: 0x0, symName: __ZNSt3__122__compressed_pair_elemINS_9allocatorIN2cv6Point_IiEEEELi1ELb1EE5__getB8ue170006Ev, symObjAddr: 0xBABC, symBinAddr: 0x10000E3B4, symSize: 0x14 }
  - { offsetInCU: 0x33FC6, offset: 0x33FC6, size: 0x8, addend: 0x0, symName: __ZNKSt3__16vectorIN2cv6Point_IiEENS_9allocatorIS3_EEE9__end_capB8ue170006Ev, symObjAddr: 0xBAD0, symBinAddr: 0x10000E3C8, symSize: 0x28 }
  - { offsetInCU: 0x33FEC, offset: 0x33FEC, size: 0x8, addend: 0x0, symName: __ZNKSt3__117__compressed_pairIPN2cv6Point_IiEENS_9allocatorIS3_EEE5firstB8ue170006Ev, symObjAddr: 0xBAF8, symBinAddr: 0x10000E3F0, symSize: 0x24 }
  - { offsetInCU: 0x34012, offset: 0x34012, size: 0x8, addend: 0x0, symName: __ZNKSt3__122__compressed_pair_elemIPN2cv6Point_IiEELi0ELb0EE5__getB8ue170006Ev, symObjAddr: 0xBB1C, symBinAddr: 0x10000E414, symSize: 0x14 }
  - { offsetInCU: 0x34038, offset: 0x34038, size: 0x8, addend: 0x0, symName: __ZNSt3__16vectorI9DataPointNS_9allocatorIS1_EEE11__make_iterB8ue170006EPS1_, symObjAddr: 0xBB30, symBinAddr: 0x10000E428, symSize: 0x30 }
  - { offsetInCU: 0x3406D, offset: 0x3406D, size: 0x8, addend: 0x0, symName: __ZNSt3__111__wrap_iterIP9DataPointEC1B8ue170006ES2_, symObjAddr: 0xBB60, symBinAddr: 0x10000E458, symSize: 0x34 }
  - { offsetInCU: 0x340A5, offset: 0x340A5, size: 0x8, addend: 0x0, symName: __ZNSt3__111__wrap_iterIP9DataPointEC2B8ue170006ES2_, symObjAddr: 0xBB94, symBinAddr: 0x10000E48C, symSize: 0x20 }
  - { offsetInCU: 0x340DD, offset: 0x340DD, size: 0x8, addend: 0x0, symName: __ZNSt3__16vectorIN2cv6Point_IiEENS_9allocatorIS3_EEE9__end_capB8ue170006Ev, symObjAddr: 0xBBB4, symBinAddr: 0x10000E4AC, symSize: 0x28 }
  - { offsetInCU: 0x34103, offset: 0x34103, size: 0x8, addend: 0x0, symName: __ZNSt3__16vectorIN2cv6Point_IiEENS_9allocatorIS3_EEE22__construct_one_at_endB8ue170006IJRKS3_EEEvDpOT_, symObjAddr: 0xBBDC, symBinAddr: 0x10000E4D4, symSize: 0x90 }
  - { offsetInCU: 0x34152, offset: 0x34152, size: 0x8, addend: 0x0, symName: __ZNSt3__16vectorIN2cv6Point_IiEENS_9allocatorIS3_EEE21__push_back_slow_pathIRKS3_EEvOT_, symObjAddr: 0xBC6C, symBinAddr: 0x10000E564, symSize: 0xD8 }
  - { offsetInCU: 0x341B0, offset: 0x341B0, size: 0x8, addend: 0x0, symName: __ZNSt3__117__compressed_pairIPN2cv6Point_IiEENS_9allocatorIS3_EEE5firstB8ue170006Ev, symObjAddr: 0xBD44, symBinAddr: 0x10000E63C, symSize: 0x24 }
  - { offsetInCU: 0x341D6, offset: 0x341D6, size: 0x8, addend: 0x0, symName: __ZNSt3__122__compressed_pair_elemIPN2cv6Point_IiEELi0ELb0EE5__getB8ue170006Ev, symObjAddr: 0xBD68, symBinAddr: 0x10000E660, symSize: 0x14 }
  - { offsetInCU: 0x34215, offset: 0x34215, size: 0x8, addend: 0x0, symName: __ZNSt3__16vectorIN2cv6Point_IiEENS_9allocatorIS3_EEE21_ConstructTransactionC1B8ue170006ERS6_m, symObjAddr: 0xBD7C, symBinAddr: 0x10000E674, symSize: 0x3C }
  - { offsetInCU: 0x3425D, offset: 0x3425D, size: 0x8, addend: 0x0, symName: __ZNSt3__116allocator_traitsINS_9allocatorIN2cv6Point_IiEEEEE9constructB8ue170006IS4_JRKS4_EvEEvRS5_PT_DpOT0_, symObjAddr: 0xBDB8, symBinAddr: 0x10000E6B0, symSize: 0x34 }
  - { offsetInCU: 0x342B4, offset: 0x342B4, size: 0x8, addend: 0x0, symName: __ZNSt3__16vectorIN2cv6Point_IiEENS_9allocatorIS3_EEE21_ConstructTransactionD1B8ue170006Ev, symObjAddr: 0xBDEC, symBinAddr: 0x10000E6E4, symSize: 0x2C }
  - { offsetInCU: 0x342DE, offset: 0x342DE, size: 0x8, addend: 0x0, symName: __ZNSt3__16vectorIN2cv6Point_IiEENS_9allocatorIS3_EEE21_ConstructTransactionC2B8ue170006ERS6_m, symObjAddr: 0xBE18, symBinAddr: 0x10000E710, symSize: 0x44 }
  - { offsetInCU: 0x34326, offset: 0x34326, size: 0x8, addend: 0x0, symName: __ZNSt3__19allocatorIN2cv6Point_IiEEE9constructB8ue170006IS3_JRKS3_EEEvPT_DpOT0_, symObjAddr: 0xBE5C, symBinAddr: 0x10000E754, symSize: 0x28 }
  - { offsetInCU: 0x3437C, offset: 0x3437C, size: 0x8, addend: 0x0, symName: __ZNSt3__16vectorIN2cv6Point_IiEENS_9allocatorIS3_EEE21_ConstructTransactionD2B8ue170006Ev, symObjAddr: 0xBE84, symBinAddr: 0x10000E77C, symSize: 0x20 }
  - { offsetInCU: 0x343A6, offset: 0x343A6, size: 0x8, addend: 0x0, symName: __ZNKSt3__16vectorIN2cv6Point_IiEENS_9allocatorIS3_EEE11__recommendB8ue170006Em, symObjAddr: 0xBEA4, symBinAddr: 0x10000E79C, symSize: 0xB4 }
  - { offsetInCU: 0x343FB, offset: 0x343FB, size: 0x8, addend: 0x0, symName: __ZNSt3__114__split_bufferIN2cv6Point_IiEERNS_9allocatorIS3_EEEC1EmmS6_, symObjAddr: 0xBF58, symBinAddr: 0x10000E850, symSize: 0x44 }
  - { offsetInCU: 0x34451, offset: 0x34451, size: 0x8, addend: 0x0, symName: __ZNSt3__114__split_bufferIN2cv6Point_IiEERNS_9allocatorIS3_EEED1Ev, symObjAddr: 0xC0AC, symBinAddr: 0x10000E9A4, symSize: 0x2C }
  - { offsetInCU: 0x3447D, offset: 0x3447D, size: 0x8, addend: 0x0, symName: __ZNKSt3__16vectorIN2cv6Point_IiEENS_9allocatorIS3_EEE8max_sizeEv, symObjAddr: 0xC0D8, symBinAddr: 0x10000E9D0, symSize: 0x60 }
  - { offsetInCU: 0x344A5, offset: 0x344A5, size: 0x8, addend: 0x0, symName: __ZNKSt3__16vectorIN2cv6Point_IiEENS_9allocatorIS3_EEE20__throw_length_errorB8ue170006Ev, symObjAddr: 0xC138, symBinAddr: 0x10000EA30, symSize: 0x1C }
  - { offsetInCU: 0x344D5, offset: 0x344D5, size: 0x8, addend: 0x0, symName: __ZNSt3__116allocator_traitsINS_9allocatorIN2cv6Point_IiEEEEE8max_sizeB8ue170006IS5_vEEmRKS5_, symObjAddr: 0xC180, symBinAddr: 0x10000EA78, symSize: 0x24 }
  - { offsetInCU: 0x34503, offset: 0x34503, size: 0x8, addend: 0x0, symName: __ZNKSt3__16vectorIN2cv6Point_IiEENS_9allocatorIS3_EEE7__allocB8ue170006Ev, symObjAddr: 0xC1A4, symBinAddr: 0x10000EA9C, symSize: 0x28 }
  - { offsetInCU: 0x34529, offset: 0x34529, size: 0x8, addend: 0x0, symName: __ZNKSt3__19allocatorIN2cv6Point_IiEEE8max_sizeB8ue170006Ev, symObjAddr: 0xC1CC, symBinAddr: 0x10000EAC4, symSize: 0x14 }
  - { offsetInCU: 0x3454F, offset: 0x3454F, size: 0x8, addend: 0x0, symName: __ZNKSt3__117__compressed_pairIPN2cv6Point_IiEENS_9allocatorIS3_EEE6secondB8ue170006Ev, symObjAddr: 0xC1E0, symBinAddr: 0x10000EAD8, symSize: 0x24 }
  - { offsetInCU: 0x34575, offset: 0x34575, size: 0x8, addend: 0x0, symName: __ZNKSt3__122__compressed_pair_elemINS_9allocatorIN2cv6Point_IiEEEELi1ELb1EE5__getB8ue170006Ev, symObjAddr: 0xC204, symBinAddr: 0x10000EAFC, symSize: 0x14 }
  - { offsetInCU: 0x3459B, offset: 0x3459B, size: 0x8, addend: 0x0, symName: __ZNSt3__114__split_bufferIN2cv6Point_IiEERNS_9allocatorIS3_EEEC2EmmS6_, symObjAddr: 0xC26C, symBinAddr: 0x10000EB64, symSize: 0xD4 }
  - { offsetInCU: 0x3460F, offset: 0x3460F, size: 0x8, addend: 0x0, symName: __ZNSt3__117__compressed_pairIPN2cv6Point_IiEERNS_9allocatorIS3_EEEC1B8ue170006IDnS7_EEOT_OT0_, symObjAddr: 0xC340, symBinAddr: 0x10000EC38, symSize: 0x3C }
  - { offsetInCU: 0x34667, offset: 0x34667, size: 0x8, addend: 0x0, symName: __ZNSt3__114__split_bufferIN2cv6Point_IiEERNS_9allocatorIS3_EEE7__allocB8ue170006Ev, symObjAddr: 0xC3BC, symBinAddr: 0x10000ECB4, symSize: 0x28 }
  - { offsetInCU: 0x3468D, offset: 0x3468D, size: 0x8, addend: 0x0, symName: __ZNSt3__114__split_bufferIN2cv6Point_IiEERNS_9allocatorIS3_EEE9__end_capB8ue170006Ev, symObjAddr: 0xC3E4, symBinAddr: 0x10000ECDC, symSize: 0x28 }
  - { offsetInCU: 0x346B3, offset: 0x346B3, size: 0x8, addend: 0x0, symName: __ZNSt3__117__compressed_pairIPN2cv6Point_IiEERNS_9allocatorIS3_EEEC2B8ue170006IDnS7_EEOT_OT0_, symObjAddr: 0xC40C, symBinAddr: 0x10000ED04, symSize: 0x48 }
  - { offsetInCU: 0x3470B, offset: 0x3470B, size: 0x8, addend: 0x0, symName: __ZNSt3__122__compressed_pair_elemIRNS_9allocatorIN2cv6Point_IiEEEELi1ELb0EEC2B8ue170006IS6_vEEOT_, symObjAddr: 0xC454, symBinAddr: 0x10000ED4C, symSize: 0x20 }
  - { offsetInCU: 0x3474D, offset: 0x3474D, size: 0x8, addend: 0x0, symName: __ZNSt3__19allocatorIN2cv6Point_IiEEE8allocateB8ue170006Em, symObjAddr: 0xC474, symBinAddr: 0x10000ED6C, symSize: 0x58 }
  - { offsetInCU: 0x34781, offset: 0x34781, size: 0x8, addend: 0x0, symName: __ZNSt3__117__compressed_pairIPN2cv6Point_IiEERNS_9allocatorIS3_EEE6secondB8ue170006Ev, symObjAddr: 0xC4CC, symBinAddr: 0x10000EDC4, symSize: 0x28 }
  - { offsetInCU: 0x347A7, offset: 0x347A7, size: 0x8, addend: 0x0, symName: __ZNSt3__122__compressed_pair_elemIRNS_9allocatorIN2cv6Point_IiEEEELi1ELb0EE5__getB8ue170006Ev, symObjAddr: 0xC4F4, symBinAddr: 0x10000EDEC, symSize: 0x18 }
  - { offsetInCU: 0x347CD, offset: 0x347CD, size: 0x8, addend: 0x0, symName: __ZNSt3__117__compressed_pairIPN2cv6Point_IiEERNS_9allocatorIS3_EEE5firstB8ue170006Ev, symObjAddr: 0xC50C, symBinAddr: 0x10000EE04, symSize: 0x24 }
  - { offsetInCU: 0x347F3, offset: 0x347F3, size: 0x8, addend: 0x0, symName: __ZNSt3__116reverse_iteratorIPN2cv6Point_IiEEEC1B8ue170006ES4_, symObjAddr: 0xC5A8, symBinAddr: 0x10000EEA0, symSize: 0x34 }
  - { offsetInCU: 0x3482B, offset: 0x3482B, size: 0x8, addend: 0x0, symName: __ZNKSt3__116reverse_iteratorIPN2cv6Point_IiEEE4baseB8ue170006Ev, symObjAddr: 0xC5DC, symBinAddr: 0x10000EED4, symSize: 0x18 }
  - { offsetInCU: 0x34851, offset: 0x34851, size: 0x8, addend: 0x0, symName: __ZNKSt3__16vectorIN2cv6Point_IiEENS_9allocatorIS3_EEE14__annotate_newB8ue170006Em, symObjAddr: 0xC630, symBinAddr: 0x10000EF28, symSize: 0xAC }
  - { offsetInCU: 0x348A9, offset: 0x348A9, size: 0x8, addend: 0x0, symName: __ZNKSt3__111__move_loopINS_17_ClassicAlgPolicyEEclB8ue170006INS_16reverse_iteratorIPN2cv6Point_IiEEEES9_S9_EENS_4pairIT_T1_EESB_T0_SC_, symObjAddr: 0xC9CC, symBinAddr: 0x10000F2C4, symSize: 0xA0 }
  - { offsetInCU: 0x34914, offset: 0x34914, size: 0x8, addend: 0x0, symName: __ZNSt3__18_IterOpsINS_17_ClassicAlgPolicyEE11__iter_moveB8ue170006IRNS_16reverse_iteratorIPN2cv6Point_IiEEEEEENS_9enable_ifIXsr12is_referenceIDTdeclsr3stdE7declvalIRT_EEEEE5valueEDTclsr3stdE4movedeclsr3stdE7declvalISD_EEEEE4typeEOSC_, symObjAddr: 0xCC00, symBinAddr: 0x10000F4F8, symSize: 0x28 }
  - { offsetInCU: 0x34940, offset: 0x34940, size: 0x8, addend: 0x0, symName: __ZNKSt3__116reverse_iteratorIPN2cv6Point_IiEEEdeB8ue170006Ev, symObjAddr: 0xCC28, symBinAddr: 0x10000F520, symSize: 0x28 }
  - { offsetInCU: 0x34974, offset: 0x34974, size: 0x8, addend: 0x0, symName: __ZNSt3__116reverse_iteratorIPN2cv6Point_IiEEEppB8ue170006Ev, symObjAddr: 0xCC50, symBinAddr: 0x10000F548, symSize: 0x20 }
  - { offsetInCU: 0x3499A, offset: 0x3499A, size: 0x8, addend: 0x0, symName: __ZNSt3__18_IterOpsINS_17_ClassicAlgPolicyEE25__validate_iter_referenceB8ue170006IRNS_16reverse_iteratorIPN2cv6Point_IiEEEEEEvv, symObjAddr: 0xCC70, symBinAddr: 0x10000F568, symSize: 0x4 }
  - { offsetInCU: 0x349B8, offset: 0x349B8, size: 0x8, addend: 0x0, symName: __ZNSt3__118__unwrap_iter_implINS_16reverse_iteratorIPN2cv6Point_IiEEEELb0EE8__unwrapB8ue170006ES6_, symObjAddr: 0xCC74, symBinAddr: 0x10000F56C, symSize: 0x24 }
  - { offsetInCU: 0x349E0, offset: 0x349E0, size: 0x8, addend: 0x0, symName: __ZNSt3__14pairINS_16reverse_iteratorIPN2cv6Point_IiEEEES6_EC1B8ue170006IS6_S6_LPv0EEEOT_OT0_, symObjAddr: 0xCC98, symBinAddr: 0x10000F590, symSize: 0x3C }
  - { offsetInCU: 0x34A3E, offset: 0x34A3E, size: 0x8, addend: 0x0, symName: __ZNSt3__14pairINS_16reverse_iteratorIPN2cv6Point_IiEEEES6_EC2B8ue170006IS6_S6_LPv0EEEOT_OT0_, symObjAddr: 0xCCD4, symBinAddr: 0x10000F5CC, symSize: 0x34 }
  - { offsetInCU: 0x34A9C, offset: 0x34A9C, size: 0x8, addend: 0x0, symName: __ZNSt3__118__unwrap_iter_implINS_16reverse_iteratorIPN2cv6Point_IiEEEELb0EE8__rewrapB8ue170006ES6_S6_, symObjAddr: 0xCD08, symBinAddr: 0x10000F600, symSize: 0x2C }
  - { offsetInCU: 0x34ACA, offset: 0x34ACA, size: 0x8, addend: 0x0, symName: __ZNSt3__116reverse_iteratorIPN2cv6Point_IiEEEC2B8ue170006ES4_, symObjAddr: 0xCD34, symBinAddr: 0x10000F62C, symSize: 0x28 }
  - { offsetInCU: 0x34B02, offset: 0x34B02, size: 0x8, addend: 0x0, symName: __ZNSt3__114__split_bufferIN2cv6Point_IiEERNS_9allocatorIS3_EEED2Ev, symObjAddr: 0xCD5C, symBinAddr: 0x10000F654, symSize: 0x8C }
  - { offsetInCU: 0x34B2E, offset: 0x34B2E, size: 0x8, addend: 0x0, symName: __ZNSt3__114__split_bufferIN2cv6Point_IiEERNS_9allocatorIS3_EEE5clearB8ue170006Ev, symObjAddr: 0xCDE8, symBinAddr: 0x10000F6E0, symSize: 0x28 }
  - { offsetInCU: 0x34B54, offset: 0x34B54, size: 0x8, addend: 0x0, symName: __ZNKSt3__114__split_bufferIN2cv6Point_IiEERNS_9allocatorIS3_EEE8capacityB8ue170006Ev, symObjAddr: 0xCE10, symBinAddr: 0x10000F708, symSize: 0x40 }
  - { offsetInCU: 0x34B7A, offset: 0x34B7A, size: 0x8, addend: 0x0, symName: __ZNSt3__114__split_bufferIN2cv6Point_IiEERNS_9allocatorIS3_EEE17__destruct_at_endB8ue170006EPS3_, symObjAddr: 0xCE50, symBinAddr: 0x10000F748, symSize: 0x2C }
  - { offsetInCU: 0x34BAE, offset: 0x34BAE, size: 0x8, addend: 0x0, symName: __ZNSt3__114__split_bufferIN2cv6Point_IiEERNS_9allocatorIS3_EEE17__destruct_at_endB8ue170006EPS3_NS_17integral_constantIbLb0EEE, symObjAddr: 0xCE7C, symBinAddr: 0x10000F774, symSize: 0x80 }
  - { offsetInCU: 0x34BEF, offset: 0x34BEF, size: 0x8, addend: 0x0, symName: __ZNKSt3__114__split_bufferIN2cv6Point_IiEERNS_9allocatorIS3_EEE9__end_capB8ue170006Ev, symObjAddr: 0xCEFC, symBinAddr: 0x10000F7F4, symSize: 0x28 }
  - { offsetInCU: 0x34C15, offset: 0x34C15, size: 0x8, addend: 0x0, symName: __ZNKSt3__117__compressed_pairIPN2cv6Point_IiEERNS_9allocatorIS3_EEE5firstB8ue170006Ev, symObjAddr: 0xCF24, symBinAddr: 0x10000F81C, symSize: 0x24 }
  - { offsetInCU: 0x34C3B, offset: 0x34C3B, size: 0x8, addend: 0x0, symName: __ZNSt3__16vectorIN2cv6Point_IdEENS_9allocatorIS3_EEEC2B8ue170006Ev, symObjAddr: 0xCF48, symBinAddr: 0x10000F840, symSize: 0x4C }
  - { offsetInCU: 0x34C65, offset: 0x34C65, size: 0x8, addend: 0x0, symName: __ZNSt3__117__compressed_pairIPN2cv6Point_IdEENS_9allocatorIS3_EEEC1B8ue170006IDnNS_18__default_init_tagEEEOT_OT0_, symObjAddr: 0xCF94, symBinAddr: 0x10000F88C, symSize: 0x3C }
  - { offsetInCU: 0x34CBD, offset: 0x34CBD, size: 0x8, addend: 0x0, symName: __ZNSt3__117__compressed_pairIPN2cv6Point_IdEENS_9allocatorIS3_EEEC2B8ue170006IDnNS_18__default_init_tagEEEOT_OT0_, symObjAddr: 0xCFD0, symBinAddr: 0x10000F8C8, symSize: 0x40 }
  - { offsetInCU: 0x34D15, offset: 0x34D15, size: 0x8, addend: 0x0, symName: __ZNSt3__122__compressed_pair_elemIPN2cv6Point_IdEELi0ELb0EEC2B8ue170006IDnvEEOT_, symObjAddr: 0xD010, symBinAddr: 0x10000F908, symSize: 0x1C }
  - { offsetInCU: 0x34D57, offset: 0x34D57, size: 0x8, addend: 0x0, symName: __ZNSt3__122__compressed_pair_elemINS_9allocatorIN2cv6Point_IdEEEELi1ELb1EEC2B8ue170006ENS_18__default_init_tagE, symObjAddr: 0xD02C, symBinAddr: 0x10000F924, symSize: 0x2C }
  - { offsetInCU: 0x34D8C, offset: 0x34D8C, size: 0x8, addend: 0x0, symName: __ZNSt3__19allocatorIN2cv6Point_IdEEEC2B8ue170006Ev, symObjAddr: 0xD058, symBinAddr: 0x10000F950, symSize: 0x2C }
  - { offsetInCU: 0x34DB6, offset: 0x34DB6, size: 0x8, addend: 0x0, symName: __ZNSt3__116__non_trivial_ifILb1ENS_9allocatorIN2cv6Point_IdEEEEEC2B8ue170006Ev, symObjAddr: 0xD084, symBinAddr: 0x10000F97C, symSize: 0x14 }
  - { offsetInCU: 0x34DE0, offset: 0x34DE0, size: 0x8, addend: 0x0, symName: __ZNSt3__16vectorIN2cv6Point_IdEENS_9allocatorIS3_EEED2B8ue170006Ev, symObjAddr: 0xD098, symBinAddr: 0x10000F990, symSize: 0x44 }
  - { offsetInCU: 0x34E0A, offset: 0x34E0A, size: 0x8, addend: 0x0, symName: __ZNSt3__16vectorIN2cv6Point_IdEENS_9allocatorIS3_EEE16__destroy_vectorC1B8ue170006ERS6_, symObjAddr: 0xD0DC, symBinAddr: 0x10000F9D4, symSize: 0x34 }
  - { offsetInCU: 0x34E43, offset: 0x34E43, size: 0x8, addend: 0x0, symName: __ZNSt3__16vectorIN2cv6Point_IdEENS_9allocatorIS3_EEE16__destroy_vectorclB8ue170006Ev, symObjAddr: 0xD110, symBinAddr: 0x10000FA08, symSize: 0x90 }
  - { offsetInCU: 0x34E69, offset: 0x34E69, size: 0x8, addend: 0x0, symName: __ZNSt3__16vectorIN2cv6Point_IdEENS_9allocatorIS3_EEE16__destroy_vectorC2B8ue170006ERS6_, symObjAddr: 0xD1A0, symBinAddr: 0x10000FA98, symSize: 0x20 }
  - { offsetInCU: 0x34EA2, offset: 0x34EA2, size: 0x8, addend: 0x0, symName: __ZNSt3__16vectorIN2cv6Point_IdEENS_9allocatorIS3_EEE7__clearB8ue170006Ev, symObjAddr: 0xD1C0, symBinAddr: 0x10000FAB8, symSize: 0x28 }
  - { offsetInCU: 0x34EC8, offset: 0x34EC8, size: 0x8, addend: 0x0, symName: __ZNKSt3__16vectorIN2cv6Point_IdEENS_9allocatorIS3_EEE17__annotate_deleteB8ue170006Ev, symObjAddr: 0xD1E8, symBinAddr: 0x10000FAE0, symSize: 0xB8 }
  - { offsetInCU: 0x34EEE, offset: 0x34EEE, size: 0x8, addend: 0x0, symName: __ZNSt3__116allocator_traitsINS_9allocatorIN2cv6Point_IdEEEEE10deallocateB8ue170006ERS5_PS4_m, symObjAddr: 0xD2A0, symBinAddr: 0x10000FB98, symSize: 0x34 }
  - { offsetInCU: 0x34F30, offset: 0x34F30, size: 0x8, addend: 0x0, symName: __ZNSt3__16vectorIN2cv6Point_IdEENS_9allocatorIS3_EEE7__allocB8ue170006Ev, symObjAddr: 0xD2D4, symBinAddr: 0x10000FBCC, symSize: 0x28 }
  - { offsetInCU: 0x34F56, offset: 0x34F56, size: 0x8, addend: 0x0, symName: __ZNKSt3__16vectorIN2cv6Point_IdEENS_9allocatorIS3_EEE8capacityB8ue170006Ev, symObjAddr: 0xD2FC, symBinAddr: 0x10000FBF4, symSize: 0x40 }
  - { offsetInCU: 0x34F7C, offset: 0x34F7C, size: 0x8, addend: 0x0, symName: __ZNSt3__16vectorIN2cv6Point_IdEENS_9allocatorIS3_EEE22__base_destruct_at_endB8ue170006EPS3_, symObjAddr: 0xD33C, symBinAddr: 0x10000FC34, symSize: 0x8C }
  - { offsetInCU: 0x34FC0, offset: 0x34FC0, size: 0x8, addend: 0x0, symName: __ZNSt3__116allocator_traitsINS_9allocatorIN2cv6Point_IdEEEEE7destroyB8ue170006IS4_vEEvRS5_PT_, symObjAddr: 0xD3C8, symBinAddr: 0x10000FCC0, symSize: 0x2C }
  - { offsetInCU: 0x34FFD, offset: 0x34FFD, size: 0x8, addend: 0x0, symName: __ZNSt3__19allocatorIN2cv6Point_IdEEE7destroyB8ue170006EPS3_, symObjAddr: 0xD408, symBinAddr: 0x10000FD00, symSize: 0x14 }
  - { offsetInCU: 0x35031, offset: 0x35031, size: 0x8, addend: 0x0, symName: __ZNKSt3__16vectorIN2cv6Point_IdEENS_9allocatorIS3_EEE31__annotate_contiguous_containerB8ue170006EPKvS8_S8_S8_, symObjAddr: 0xD41C, symBinAddr: 0x10000FD14, symSize: 0x20 }
  - { offsetInCU: 0x35083, offset: 0x35083, size: 0x8, addend: 0x0, symName: __ZNKSt3__16vectorIN2cv6Point_IdEENS_9allocatorIS3_EEE4dataB8ue170006Ev, symObjAddr: 0xD43C, symBinAddr: 0x10000FD34, symSize: 0x28 }
  - { offsetInCU: 0x350A9, offset: 0x350A9, size: 0x8, addend: 0x0, symName: __ZNKSt3__16vectorIN2cv6Point_IdEENS_9allocatorIS3_EEE4sizeB8ue170006Ev, symObjAddr: 0xD464, symBinAddr: 0x10000FD5C, symSize: 0x28 }
  - { offsetInCU: 0x350CF, offset: 0x350CF, size: 0x8, addend: 0x0, symName: __ZNSt3__19allocatorIN2cv6Point_IdEEE10deallocateB8ue170006EPS3_m, symObjAddr: 0xD48C, symBinAddr: 0x10000FD84, symSize: 0x40 }
  - { offsetInCU: 0x35111, offset: 0x35111, size: 0x8, addend: 0x0, symName: __ZNSt3__117__compressed_pairIPN2cv6Point_IdEENS_9allocatorIS3_EEE6secondB8ue170006Ev, symObjAddr: 0xD4CC, symBinAddr: 0x10000FDC4, symSize: 0x24 }
  - { offsetInCU: 0x35137, offset: 0x35137, size: 0x8, addend: 0x0, symName: __ZNSt3__122__compressed_pair_elemINS_9allocatorIN2cv6Point_IdEEEELi1ELb1EE5__getB8ue170006Ev, symObjAddr: 0xD4F0, symBinAddr: 0x10000FDE8, symSize: 0x14 }
  - { offsetInCU: 0x3515D, offset: 0x3515D, size: 0x8, addend: 0x0, symName: __ZNKSt3__16vectorIN2cv6Point_IdEENS_9allocatorIS3_EEE9__end_capB8ue170006Ev, symObjAddr: 0xD504, symBinAddr: 0x10000FDFC, symSize: 0x28 }
  - { offsetInCU: 0x35183, offset: 0x35183, size: 0x8, addend: 0x0, symName: __ZNKSt3__117__compressed_pairIPN2cv6Point_IdEENS_9allocatorIS3_EEE5firstB8ue170006Ev, symObjAddr: 0xD52C, symBinAddr: 0x10000FE24, symSize: 0x24 }
  - { offsetInCU: 0x351A9, offset: 0x351A9, size: 0x8, addend: 0x0, symName: __ZNKSt3__122__compressed_pair_elemIPN2cv6Point_IdEELi0ELb0EE5__getB8ue170006Ev, symObjAddr: 0xD550, symBinAddr: 0x10000FE48, symSize: 0x14 }
  - { offsetInCU: 0x351CF, offset: 0x351CF, size: 0x8, addend: 0x0, symName: __ZNSt3__16vectorIN2cv6Point_IdEENS_9allocatorIS3_EEE9__end_capB8ue170006Ev, symObjAddr: 0xD564, symBinAddr: 0x10000FE5C, symSize: 0x28 }
  - { offsetInCU: 0x351F5, offset: 0x351F5, size: 0x8, addend: 0x0, symName: __ZNSt3__16vectorIN2cv6Point_IdEENS_9allocatorIS3_EEE22__construct_one_at_endB8ue170006IJRKS3_EEEvDpOT_, symObjAddr: 0xD58C, symBinAddr: 0x10000FE84, symSize: 0x90 }
  - { offsetInCU: 0x35244, offset: 0x35244, size: 0x8, addend: 0x0, symName: __ZNSt3__16vectorIN2cv6Point_IdEENS_9allocatorIS3_EEE21__push_back_slow_pathIRKS3_EEvOT_, symObjAddr: 0xD61C, symBinAddr: 0x10000FF14, symSize: 0xD8 }
  - { offsetInCU: 0x352A2, offset: 0x352A2, size: 0x8, addend: 0x0, symName: __ZNSt3__117__compressed_pairIPN2cv6Point_IdEENS_9allocatorIS3_EEE5firstB8ue170006Ev, symObjAddr: 0xD6F4, symBinAddr: 0x10000FFEC, symSize: 0x24 }
  - { offsetInCU: 0x352C8, offset: 0x352C8, size: 0x8, addend: 0x0, symName: __ZNSt3__122__compressed_pair_elemIPN2cv6Point_IdEELi0ELb0EE5__getB8ue170006Ev, symObjAddr: 0xD718, symBinAddr: 0x100010010, symSize: 0x14 }
  - { offsetInCU: 0x35307, offset: 0x35307, size: 0x8, addend: 0x0, symName: __ZNSt3__16vectorIN2cv6Point_IdEENS_9allocatorIS3_EEE21_ConstructTransactionC1B8ue170006ERS6_m, symObjAddr: 0xD72C, symBinAddr: 0x100010024, symSize: 0x3C }
  - { offsetInCU: 0x3534F, offset: 0x3534F, size: 0x8, addend: 0x0, symName: __ZNSt3__116allocator_traitsINS_9allocatorIN2cv6Point_IdEEEEE9constructB8ue170006IS4_JRKS4_EvEEvRS5_PT_DpOT0_, symObjAddr: 0xD768, symBinAddr: 0x100010060, symSize: 0x34 }
  - { offsetInCU: 0x353A6, offset: 0x353A6, size: 0x8, addend: 0x0, symName: __ZNSt3__16vectorIN2cv6Point_IdEENS_9allocatorIS3_EEE21_ConstructTransactionD1B8ue170006Ev, symObjAddr: 0xD79C, symBinAddr: 0x100010094, symSize: 0x2C }
  - { offsetInCU: 0x353D0, offset: 0x353D0, size: 0x8, addend: 0x0, symName: __ZNSt3__16vectorIN2cv6Point_IdEENS_9allocatorIS3_EEE21_ConstructTransactionC2B8ue170006ERS6_m, symObjAddr: 0xD7C8, symBinAddr: 0x1000100C0, symSize: 0x44 }
  - { offsetInCU: 0x35418, offset: 0x35418, size: 0x8, addend: 0x0, symName: __ZNSt3__19allocatorIN2cv6Point_IdEEE9constructB8ue170006IS3_JRKS3_EEEvPT_DpOT0_, symObjAddr: 0xD80C, symBinAddr: 0x100010104, symSize: 0x28 }
  - { offsetInCU: 0x3546E, offset: 0x3546E, size: 0x8, addend: 0x0, symName: __ZNSt3__16vectorIN2cv6Point_IdEENS_9allocatorIS3_EEE21_ConstructTransactionD2B8ue170006Ev, symObjAddr: 0xD834, symBinAddr: 0x10001012C, symSize: 0x20 }
  - { offsetInCU: 0x35498, offset: 0x35498, size: 0x8, addend: 0x0, symName: __ZNKSt3__16vectorIN2cv6Point_IdEENS_9allocatorIS3_EEE11__recommendB8ue170006Em, symObjAddr: 0xD854, symBinAddr: 0x10001014C, symSize: 0xB4 }
  - { offsetInCU: 0x354ED, offset: 0x354ED, size: 0x8, addend: 0x0, symName: __ZNSt3__114__split_bufferIN2cv6Point_IdEERNS_9allocatorIS3_EEEC1EmmS6_, symObjAddr: 0xD908, symBinAddr: 0x100010200, symSize: 0x44 }
  - { offsetInCU: 0x35543, offset: 0x35543, size: 0x8, addend: 0x0, symName: __ZNSt3__114__split_bufferIN2cv6Point_IdEERNS_9allocatorIS3_EEED1Ev, symObjAddr: 0xDA5C, symBinAddr: 0x100010354, symSize: 0x2C }
  - { offsetInCU: 0x3556F, offset: 0x3556F, size: 0x8, addend: 0x0, symName: __ZNKSt3__16vectorIN2cv6Point_IdEENS_9allocatorIS3_EEE8max_sizeEv, symObjAddr: 0xDA88, symBinAddr: 0x100010380, symSize: 0x60 }
  - { offsetInCU: 0x35597, offset: 0x35597, size: 0x8, addend: 0x0, symName: __ZNKSt3__16vectorIN2cv6Point_IdEENS_9allocatorIS3_EEE20__throw_length_errorB8ue170006Ev, symObjAddr: 0xDAE8, symBinAddr: 0x1000103E0, symSize: 0x1C }
  - { offsetInCU: 0x355C7, offset: 0x355C7, size: 0x8, addend: 0x0, symName: __ZNSt3__116allocator_traitsINS_9allocatorIN2cv6Point_IdEEEEE8max_sizeB8ue170006IS5_vEEmRKS5_, symObjAddr: 0xDB04, symBinAddr: 0x1000103FC, symSize: 0x24 }
  - { offsetInCU: 0x355F5, offset: 0x355F5, size: 0x8, addend: 0x0, symName: __ZNKSt3__16vectorIN2cv6Point_IdEENS_9allocatorIS3_EEE7__allocB8ue170006Ev, symObjAddr: 0xDB28, symBinAddr: 0x100010420, symSize: 0x28 }
  - { offsetInCU: 0x3561B, offset: 0x3561B, size: 0x8, addend: 0x0, symName: __ZNKSt3__19allocatorIN2cv6Point_IdEEE8max_sizeB8ue170006Ev, symObjAddr: 0xDB50, symBinAddr: 0x100010448, symSize: 0x14 }
  - { offsetInCU: 0x35641, offset: 0x35641, size: 0x8, addend: 0x0, symName: __ZNKSt3__117__compressed_pairIPN2cv6Point_IdEENS_9allocatorIS3_EEE6secondB8ue170006Ev, symObjAddr: 0xDB64, symBinAddr: 0x10001045C, symSize: 0x24 }
  - { offsetInCU: 0x35667, offset: 0x35667, size: 0x8, addend: 0x0, symName: __ZNKSt3__122__compressed_pair_elemINS_9allocatorIN2cv6Point_IdEEEELi1ELb1EE5__getB8ue170006Ev, symObjAddr: 0xDB88, symBinAddr: 0x100010480, symSize: 0x14 }
  - { offsetInCU: 0x3568D, offset: 0x3568D, size: 0x8, addend: 0x0, symName: __ZNSt3__114__split_bufferIN2cv6Point_IdEERNS_9allocatorIS3_EEEC2EmmS6_, symObjAddr: 0xDB9C, symBinAddr: 0x100010494, symSize: 0xD4 }
  - { offsetInCU: 0x35701, offset: 0x35701, size: 0x8, addend: 0x0, symName: __ZNSt3__117__compressed_pairIPN2cv6Point_IdEERNS_9allocatorIS3_EEEC1B8ue170006IDnS7_EEOT_OT0_, symObjAddr: 0xDC70, symBinAddr: 0x100010568, symSize: 0x3C }
  - { offsetInCU: 0x35759, offset: 0x35759, size: 0x8, addend: 0x0, symName: __ZNSt3__114__split_bufferIN2cv6Point_IdEERNS_9allocatorIS3_EEE7__allocB8ue170006Ev, symObjAddr: 0xDCEC, symBinAddr: 0x1000105E4, symSize: 0x28 }
  - { offsetInCU: 0x3577F, offset: 0x3577F, size: 0x8, addend: 0x0, symName: __ZNSt3__114__split_bufferIN2cv6Point_IdEERNS_9allocatorIS3_EEE9__end_capB8ue170006Ev, symObjAddr: 0xDD14, symBinAddr: 0x10001060C, symSize: 0x28 }
  - { offsetInCU: 0x357A5, offset: 0x357A5, size: 0x8, addend: 0x0, symName: __ZNSt3__117__compressed_pairIPN2cv6Point_IdEERNS_9allocatorIS3_EEEC2B8ue170006IDnS7_EEOT_OT0_, symObjAddr: 0xDD3C, symBinAddr: 0x100010634, symSize: 0x48 }
  - { offsetInCU: 0x357FD, offset: 0x357FD, size: 0x8, addend: 0x0, symName: __ZNSt3__122__compressed_pair_elemIRNS_9allocatorIN2cv6Point_IdEEEELi1ELb0EEC2B8ue170006IS6_vEEOT_, symObjAddr: 0xDD84, symBinAddr: 0x10001067C, symSize: 0x20 }
  - { offsetInCU: 0x3583F, offset: 0x3583F, size: 0x8, addend: 0x0, symName: __ZNSt3__19allocatorIN2cv6Point_IdEEE8allocateB8ue170006Em, symObjAddr: 0xDDA4, symBinAddr: 0x10001069C, symSize: 0x58 }
  - { offsetInCU: 0x35873, offset: 0x35873, size: 0x8, addend: 0x0, symName: __ZNSt3__117__compressed_pairIPN2cv6Point_IdEERNS_9allocatorIS3_EEE6secondB8ue170006Ev, symObjAddr: 0xDDFC, symBinAddr: 0x1000106F4, symSize: 0x28 }
  - { offsetInCU: 0x35899, offset: 0x35899, size: 0x8, addend: 0x0, symName: __ZNSt3__122__compressed_pair_elemIRNS_9allocatorIN2cv6Point_IdEEEELi1ELb0EE5__getB8ue170006Ev, symObjAddr: 0xDE24, symBinAddr: 0x10001071C, symSize: 0x18 }
  - { offsetInCU: 0x358BF, offset: 0x358BF, size: 0x8, addend: 0x0, symName: __ZNSt3__117__compressed_pairIPN2cv6Point_IdEERNS_9allocatorIS3_EEE5firstB8ue170006Ev, symObjAddr: 0xDE3C, symBinAddr: 0x100010734, symSize: 0x24 }
  - { offsetInCU: 0x358E5, offset: 0x358E5, size: 0x8, addend: 0x0, symName: __ZNSt3__116reverse_iteratorIPN2cv6Point_IdEEEC1B8ue170006ES4_, symObjAddr: 0xDED8, symBinAddr: 0x1000107D0, symSize: 0x34 }
  - { offsetInCU: 0x3591D, offset: 0x3591D, size: 0x8, addend: 0x0, symName: __ZNKSt3__116reverse_iteratorIPN2cv6Point_IdEEE4baseB8ue170006Ev, symObjAddr: 0xDF0C, symBinAddr: 0x100010804, symSize: 0x18 }
  - { offsetInCU: 0x35943, offset: 0x35943, size: 0x8, addend: 0x0, symName: __ZNKSt3__16vectorIN2cv6Point_IdEENS_9allocatorIS3_EEE14__annotate_newB8ue170006Em, symObjAddr: 0xDF60, symBinAddr: 0x100010858, symSize: 0xAC }
  - { offsetInCU: 0x35991, offset: 0x35991, size: 0x8, addend: 0x0, symName: __ZNKSt3__111__move_loopINS_17_ClassicAlgPolicyEEclB8ue170006INS_16reverse_iteratorIPN2cv6Point_IdEEEES9_S9_EENS_4pairIT_T1_EESB_T0_SC_, symObjAddr: 0xE2FC, symBinAddr: 0x100010BF4, symSize: 0xA0 }
  - { offsetInCU: 0x359FC, offset: 0x359FC, size: 0x8, addend: 0x0, symName: __ZNSt3__18_IterOpsINS_17_ClassicAlgPolicyEE11__iter_moveB8ue170006IRNS_16reverse_iteratorIPN2cv6Point_IdEEEEEENS_9enable_ifIXsr12is_referenceIDTdeclsr3stdE7declvalIRT_EEEEE5valueEDTclsr3stdE4movedeclsr3stdE7declvalISD_EEEEE4typeEOSC_, symObjAddr: 0xE530, symBinAddr: 0x100010E28, symSize: 0x28 }
  - { offsetInCU: 0x35A28, offset: 0x35A28, size: 0x8, addend: 0x0, symName: __ZNKSt3__116reverse_iteratorIPN2cv6Point_IdEEEdeB8ue170006Ev, symObjAddr: 0xE558, symBinAddr: 0x100010E50, symSize: 0x28 }
  - { offsetInCU: 0x35A5C, offset: 0x35A5C, size: 0x8, addend: 0x0, symName: __ZNSt3__116reverse_iteratorIPN2cv6Point_IdEEEppB8ue170006Ev, symObjAddr: 0xE580, symBinAddr: 0x100010E78, symSize: 0x20 }
  - { offsetInCU: 0x35A82, offset: 0x35A82, size: 0x8, addend: 0x0, symName: __ZNSt3__18_IterOpsINS_17_ClassicAlgPolicyEE25__validate_iter_referenceB8ue170006IRNS_16reverse_iteratorIPN2cv6Point_IdEEEEEEvv, symObjAddr: 0xE5A0, symBinAddr: 0x100010E98, symSize: 0x4 }
  - { offsetInCU: 0x35AA0, offset: 0x35AA0, size: 0x8, addend: 0x0, symName: __ZNSt3__118__unwrap_iter_implINS_16reverse_iteratorIPN2cv6Point_IdEEEELb0EE8__unwrapB8ue170006ES6_, symObjAddr: 0xE5A4, symBinAddr: 0x100010E9C, symSize: 0x24 }
  - { offsetInCU: 0x35AC8, offset: 0x35AC8, size: 0x8, addend: 0x0, symName: __ZNSt3__14pairINS_16reverse_iteratorIPN2cv6Point_IdEEEES6_EC1B8ue170006IS6_S6_LPv0EEEOT_OT0_, symObjAddr: 0xE5C8, symBinAddr: 0x100010EC0, symSize: 0x3C }
  - { offsetInCU: 0x35B26, offset: 0x35B26, size: 0x8, addend: 0x0, symName: __ZNSt3__14pairINS_16reverse_iteratorIPN2cv6Point_IdEEEES6_EC2B8ue170006IS6_S6_LPv0EEEOT_OT0_, symObjAddr: 0xE604, symBinAddr: 0x100010EFC, symSize: 0x34 }
  - { offsetInCU: 0x35B84, offset: 0x35B84, size: 0x8, addend: 0x0, symName: __ZNSt3__118__unwrap_iter_implINS_16reverse_iteratorIPN2cv6Point_IdEEEELb0EE8__rewrapB8ue170006ES6_S6_, symObjAddr: 0xE638, symBinAddr: 0x100010F30, symSize: 0x2C }
  - { offsetInCU: 0x35BB2, offset: 0x35BB2, size: 0x8, addend: 0x0, symName: __ZNSt3__116reverse_iteratorIPN2cv6Point_IdEEEC2B8ue170006ES4_, symObjAddr: 0xE664, symBinAddr: 0x100010F5C, symSize: 0x28 }
  - { offsetInCU: 0x35BEA, offset: 0x35BEA, size: 0x8, addend: 0x0, symName: __ZNSt3__114__split_bufferIN2cv6Point_IdEERNS_9allocatorIS3_EEED2Ev, symObjAddr: 0xE68C, symBinAddr: 0x100010F84, symSize: 0x8C }
  - { offsetInCU: 0x35C16, offset: 0x35C16, size: 0x8, addend: 0x0, symName: __ZNSt3__114__split_bufferIN2cv6Point_IdEERNS_9allocatorIS3_EEE5clearB8ue170006Ev, symObjAddr: 0xE718, symBinAddr: 0x100011010, symSize: 0x28 }
  - { offsetInCU: 0x35C3C, offset: 0x35C3C, size: 0x8, addend: 0x0, symName: __ZNKSt3__114__split_bufferIN2cv6Point_IdEERNS_9allocatorIS3_EEE8capacityB8ue170006Ev, symObjAddr: 0xE740, symBinAddr: 0x100011038, symSize: 0x40 }
  - { offsetInCU: 0x35C62, offset: 0x35C62, size: 0x8, addend: 0x0, symName: __ZNSt3__114__split_bufferIN2cv6Point_IdEERNS_9allocatorIS3_EEE17__destruct_at_endB8ue170006EPS3_, symObjAddr: 0xE780, symBinAddr: 0x100011078, symSize: 0x2C }
  - { offsetInCU: 0x35C96, offset: 0x35C96, size: 0x8, addend: 0x0, symName: __ZNSt3__114__split_bufferIN2cv6Point_IdEERNS_9allocatorIS3_EEE17__destruct_at_endB8ue170006EPS3_NS_17integral_constantIbLb0EEE, symObjAddr: 0xE7AC, symBinAddr: 0x1000110A4, symSize: 0x80 }
  - { offsetInCU: 0x35CD7, offset: 0x35CD7, size: 0x8, addend: 0x0, symName: __ZNKSt3__114__split_bufferIN2cv6Point_IdEERNS_9allocatorIS3_EEE9__end_capB8ue170006Ev, symObjAddr: 0xE82C, symBinAddr: 0x100011124, symSize: 0x28 }
  - { offsetInCU: 0x35CFD, offset: 0x35CFD, size: 0x8, addend: 0x0, symName: __ZNKSt3__117__compressed_pairIPN2cv6Point_IdEERNS_9allocatorIS3_EEE5firstB8ue170006Ev, symObjAddr: 0xE854, symBinAddr: 0x10001114C, symSize: 0x24 }
  - { offsetInCU: 0x35D23, offset: 0x35D23, size: 0x8, addend: 0x0, symName: __ZN2cv4Mat_IdEC2Eii, symObjAddr: 0xE878, symBinAddr: 0x100011170, symSize: 0x40 }
  - { offsetInCU: 0x35D6E, offset: 0x35D6E, size: 0x8, addend: 0x0, symName: __ZN2cv20MatCommaInitializer_IdEC1EPNS_4Mat_IdEE, symObjAddr: 0xE8B8, symBinAddr: 0x1000111B0, symSize: 0x34 }
  - { offsetInCU: 0x35DAA, offset: 0x35DAA, size: 0x8, addend: 0x0, symName: __ZN2cv20MatCommaInitializer_IdEC1ERKS1_, symObjAddr: 0xE8EC, symBinAddr: 0x1000111E4, symSize: 0x34 }
  - { offsetInCU: 0x35DE0, offset: 0x35DE0, size: 0x8, addend: 0x0, symName: __ZN2cv20MatCommaInitializer_IdEC2EPNS_4Mat_IdEE, symObjAddr: 0xE920, symBinAddr: 0x100011218, symSize: 0x34 }
  - { offsetInCU: 0x35E1C, offset: 0x35E1C, size: 0x8, addend: 0x0, symName: __ZN2cv12MatIterator_IdEC1EPNS_4Mat_IdEE, symObjAddr: 0xE954, symBinAddr: 0x10001124C, symSize: 0x34 }
  - { offsetInCU: 0x35E58, offset: 0x35E58, size: 0x8, addend: 0x0, symName: __ZN2cv12MatIterator_IdEC2EPNS_4Mat_IdEE, symObjAddr: 0xE988, symBinAddr: 0x100011280, symSize: 0x34 }
  - { offsetInCU: 0x35E94, offset: 0x35E94, size: 0x8, addend: 0x0, symName: __ZN2cv17MatConstIterator_IdEC2EPKNS_4Mat_IdEE, symObjAddr: 0xE9BC, symBinAddr: 0x1000112B4, symSize: 0x34 }
  - { offsetInCU: 0x35ED0, offset: 0x35ED0, size: 0x8, addend: 0x0, symName: __ZN2cv16MatConstIteratorC2EPKNS_3MatE, symObjAddr: 0xE9F0, symBinAddr: 0x1000112E8, symSize: 0x154 }
  - { offsetInCU: 0x35F0C, offset: 0x35F0C, size: 0x8, addend: 0x0, symName: __ZNK2cv3Mat8elemSizeEv, symObjAddr: 0xEB44, symBinAddr: 0x10001143C, symSize: 0x60 }
  - { offsetInCU: 0x35F44, offset: 0x35F44, size: 0x8, addend: 0x0, symName: __ZNK2cv3Mat3ptrEi, symObjAddr: 0xEBA4, symBinAddr: 0x10001149C, symSize: 0x30 }
  - { offsetInCU: 0x35F7C, offset: 0x35F7C, size: 0x8, addend: 0x0, symName: __ZN2cv20MatCommaInitializer_IdEC2ERKS1_, symObjAddr: 0xEBD4, symBinAddr: 0x1000114CC, symSize: 0x34 }
  - { offsetInCU: 0x35FB2, offset: 0x35FB2, size: 0x8, addend: 0x0, symName: __ZN2cv12MatIterator_IdEC1ERKS1_, symObjAddr: 0xEC08, symBinAddr: 0x100011500, symSize: 0x34 }
  - { offsetInCU: 0x35FEE, offset: 0x35FEE, size: 0x8, addend: 0x0, symName: __ZN2cv12MatIterator_IdEC2ERKS1_, symObjAddr: 0xEC3C, symBinAddr: 0x100011534, symSize: 0x34 }
  - { offsetInCU: 0x3602A, offset: 0x3602A, size: 0x8, addend: 0x0, symName: __ZN2cv17MatConstIterator_IdEC2ERKS1_, symObjAddr: 0xEC70, symBinAddr: 0x100011568, symSize: 0x34 }
  - { offsetInCU: 0x36066, offset: 0x36066, size: 0x8, addend: 0x0, symName: __ZN2cv16MatConstIteratorC2ERKS0_, symObjAddr: 0xECA4, symBinAddr: 0x10001159C, symSize: 0x54 }
  - { offsetInCU: 0x360A2, offset: 0x360A2, size: 0x8, addend: 0x0, symName: __ZNK2cv12MatIterator_IdEdeEv, symObjAddr: 0xECF8, symBinAddr: 0x1000115F0, symSize: 0x18 }
  - { offsetInCU: 0x360CB, offset: 0x360CB, size: 0x8, addend: 0x0, symName: __ZN2cv12MatIterator_IdEppEv, symObjAddr: 0xED10, symBinAddr: 0x100011608, symSize: 0x2C }
  - { offsetInCU: 0x360F4, offset: 0x360F4, size: 0x8, addend: 0x0, symName: __ZN2cv16MatConstIteratorppEv, symObjAddr: 0xED3C, symBinAddr: 0x100011634, symSize: 0x8C }
  - { offsetInCU: 0x3611D, offset: 0x3611D, size: 0x8, addend: 0x0, symName: __ZN2cv4Mat_IdEC1ERKNS_3MatE, symObjAddr: 0xEDC8, symBinAddr: 0x1000116C0, symSize: 0x34 }
  - { offsetInCU: 0x36159, offset: 0x36159, size: 0x8, addend: 0x0, symName: __ZN2cv4Mat_IdEC2ERKNS_3MatE, symObjAddr: 0xEDFC, symBinAddr: 0x1000116F4, symSize: 0x74 }
  - { offsetInCU: 0x36195, offset: 0x36195, size: 0x8, addend: 0x0, symName: __ZN2cv4Mat_IdEaSERKNS_3MatE, symObjAddr: 0xEE70, symBinAddr: 0x100011768, symSize: 0x208 }
  - { offsetInCU: 0x361CD, offset: 0x361CD, size: 0x8, addend: 0x0, symName: __ZN2cv4Mat_IdE7releaseEv, symObjAddr: 0xF078, symBinAddr: 0x100011970, symSize: 0x3C }
  - { offsetInCU: 0x361F6, offset: 0x361F6, size: 0x8, addend: 0x0, symName: __ZNK2cv3Mat4typeEv, symObjAddr: 0xF0B4, symBinAddr: 0x1000119AC, symSize: 0x1C }
  - { offsetInCU: 0x3621F, offset: 0x3621F, size: 0x8, addend: 0x0, symName: __ZNK2cv3Mat5depthEv, symObjAddr: 0xF0D0, symBinAddr: 0x1000119C8, symSize: 0x1C }
  - { offsetInCU: 0x36248, offset: 0x36248, size: 0x8, addend: 0x0, symName: __ZN2cv4Mat_IdEaSEONS_3MatE, symObjAddr: 0xF0EC, symBinAddr: 0x1000119E4, symSize: 0x170 }
  - { offsetInCU: 0x36280, offset: 0x36280, size: 0x8, addend: 0x0, symName: __ZNK2cv3Mat8channelsEv, symObjAddr: 0xF25C, symBinAddr: 0x100011B54, symSize: 0x24 }
  - { offsetInCU: 0x362A9, offset: 0x362A9, size: 0x8, addend: 0x0, symName: __ZN2cv12_OutputArrayC1IdEERNS_4Mat_IT_EE, symObjAddr: 0xF280, symBinAddr: 0x100011B78, symSize: 0x34 }
  - { offsetInCU: 0x362EA, offset: 0x362EA, size: 0x8, addend: 0x0, symName: __ZNK2cv4Mat_IdE4typeEv, symObjAddr: 0xF2B4, symBinAddr: 0x100011BAC, symSize: 0x14 }
  - { offsetInCU: 0x36313, offset: 0x36313, size: 0x8, addend: 0x0, symName: __ZN2cv12_OutputArrayC2IdEERNS_4Mat_IT_EE, symObjAddr: 0xF2C8, symBinAddr: 0x100011BC0, symSize: 0x44 }
  - { offsetInCU: 0x36354, offset: 0x36354, size: 0x8, addend: 0x0, symName: __ZN2cv11_InputArrayC2INS_6Point_IdEEEERKNSt3__16vectorIT_NS4_9allocatorIS6_EEEE, symObjAddr: 0xF30C, symBinAddr: 0x100011C04, symSize: 0x48 }
  - { offsetInCU: 0x36395, offset: 0x36395, size: 0x8, addend: 0x0, symName: __ZNSt3__16vectorIN2cv3MatENS_9allocatorIS2_EEEC2B8ue170006Ev, symObjAddr: 0xF354, symBinAddr: 0x100011C4C, symSize: 0x4C }
  - { offsetInCU: 0x363BF, offset: 0x363BF, size: 0x8, addend: 0x0, symName: __ZNSt3__117__compressed_pairIPN2cv3MatENS_9allocatorIS2_EEEC1B8ue170006IDnNS_18__default_init_tagEEEOT_OT0_, symObjAddr: 0xF3A0, symBinAddr: 0x100011C98, symSize: 0x3C }
  - { offsetInCU: 0x36417, offset: 0x36417, size: 0x8, addend: 0x0, symName: __ZNSt3__117__compressed_pairIPN2cv3MatENS_9allocatorIS2_EEEC2B8ue170006IDnNS_18__default_init_tagEEEOT_OT0_, symObjAddr: 0xF3DC, symBinAddr: 0x100011CD4, symSize: 0x40 }
  - { offsetInCU: 0x3646F, offset: 0x3646F, size: 0x8, addend: 0x0, symName: __ZNSt3__122__compressed_pair_elemIPN2cv3MatELi0ELb0EEC2B8ue170006IDnvEEOT_, symObjAddr: 0xF41C, symBinAddr: 0x100011D14, symSize: 0x1C }
  - { offsetInCU: 0x364B1, offset: 0x364B1, size: 0x8, addend: 0x0, symName: __ZNSt3__122__compressed_pair_elemINS_9allocatorIN2cv3MatEEELi1ELb1EEC2B8ue170006ENS_18__default_init_tagE, symObjAddr: 0xF438, symBinAddr: 0x100011D30, symSize: 0x2C }
  - { offsetInCU: 0x364E6, offset: 0x364E6, size: 0x8, addend: 0x0, symName: __ZNSt3__19allocatorIN2cv3MatEEC2B8ue170006Ev, symObjAddr: 0xF464, symBinAddr: 0x100011D5C, symSize: 0x2C }
  - { offsetInCU: 0x36510, offset: 0x36510, size: 0x8, addend: 0x0, symName: __ZNSt3__116__non_trivial_ifILb1ENS_9allocatorIN2cv3MatEEEEC2B8ue170006Ev, symObjAddr: 0xF490, symBinAddr: 0x100011D88, symSize: 0x14 }
  - { offsetInCU: 0x3653A, offset: 0x3653A, size: 0x8, addend: 0x0, symName: __ZNSt3__16vectorIN2cv3MatENS_9allocatorIS2_EEED2B8ue170006Ev, symObjAddr: 0xF4A4, symBinAddr: 0x100011D9C, symSize: 0x44 }
  - { offsetInCU: 0x36564, offset: 0x36564, size: 0x8, addend: 0x0, symName: __ZNSt3__16vectorIN2cv3MatENS_9allocatorIS2_EEE16__destroy_vectorC1B8ue170006ERS5_, symObjAddr: 0xF4E8, symBinAddr: 0x100011DE0, symSize: 0x34 }
  - { offsetInCU: 0x3659D, offset: 0x3659D, size: 0x8, addend: 0x0, symName: __ZNSt3__16vectorIN2cv3MatENS_9allocatorIS2_EEE16__destroy_vectorclB8ue170006Ev, symObjAddr: 0xF51C, symBinAddr: 0x100011E14, symSize: 0x90 }
  - { offsetInCU: 0x365C3, offset: 0x365C3, size: 0x8, addend: 0x0, symName: __ZNSt3__16vectorIN2cv3MatENS_9allocatorIS2_EEE16__destroy_vectorC2B8ue170006ERS5_, symObjAddr: 0xF5AC, symBinAddr: 0x100011EA4, symSize: 0x20 }
  - { offsetInCU: 0x365FC, offset: 0x365FC, size: 0x8, addend: 0x0, symName: __ZNSt3__16vectorIN2cv3MatENS_9allocatorIS2_EEE7__clearB8ue170006Ev, symObjAddr: 0xF5CC, symBinAddr: 0x100011EC4, symSize: 0x28 }
  - { offsetInCU: 0x36622, offset: 0x36622, size: 0x8, addend: 0x0, symName: __ZNKSt3__16vectorIN2cv3MatENS_9allocatorIS2_EEE17__annotate_deleteB8ue170006Ev, symObjAddr: 0xF5F4, symBinAddr: 0x100011EEC, symSize: 0xD4 }
  - { offsetInCU: 0x36648, offset: 0x36648, size: 0x8, addend: 0x0, symName: __ZNSt3__116allocator_traitsINS_9allocatorIN2cv3MatEEEE10deallocateB8ue170006ERS4_PS3_m, symObjAddr: 0xF6C8, symBinAddr: 0x100011FC0, symSize: 0x34 }
  - { offsetInCU: 0x3668A, offset: 0x3668A, size: 0x8, addend: 0x0, symName: __ZNSt3__16vectorIN2cv3MatENS_9allocatorIS2_EEE7__allocB8ue170006Ev, symObjAddr: 0xF6FC, symBinAddr: 0x100011FF4, symSize: 0x28 }
  - { offsetInCU: 0x366B0, offset: 0x366B0, size: 0x8, addend: 0x0, symName: __ZNKSt3__16vectorIN2cv3MatENS_9allocatorIS2_EEE8capacityB8ue170006Ev, symObjAddr: 0xF724, symBinAddr: 0x10001201C, symSize: 0x40 }
  - { offsetInCU: 0x366D6, offset: 0x366D6, size: 0x8, addend: 0x0, symName: __ZNSt3__16vectorIN2cv3MatENS_9allocatorIS2_EEE22__base_destruct_at_endB8ue170006EPS2_, symObjAddr: 0xF764, symBinAddr: 0x10001205C, symSize: 0x8C }
  - { offsetInCU: 0x3671A, offset: 0x3671A, size: 0x8, addend: 0x0, symName: __ZNSt3__116allocator_traitsINS_9allocatorIN2cv3MatEEEE7destroyB8ue170006IS3_vEEvRS4_PT_, symObjAddr: 0xF7F0, symBinAddr: 0x1000120E8, symSize: 0x2C }
  - { offsetInCU: 0x36757, offset: 0x36757, size: 0x8, addend: 0x0, symName: __ZNSt3__19allocatorIN2cv3MatEE7destroyB8ue170006EPS2_, symObjAddr: 0xF830, symBinAddr: 0x100012128, symSize: 0x28 }
  - { offsetInCU: 0x3678B, offset: 0x3678B, size: 0x8, addend: 0x0, symName: __ZNKSt3__16vectorIN2cv3MatENS_9allocatorIS2_EEE31__annotate_contiguous_containerB8ue170006EPKvS7_S7_S7_, symObjAddr: 0xF858, symBinAddr: 0x100012150, symSize: 0x20 }
  - { offsetInCU: 0x367DD, offset: 0x367DD, size: 0x8, addend: 0x0, symName: __ZNKSt3__16vectorIN2cv3MatENS_9allocatorIS2_EEE4dataB8ue170006Ev, symObjAddr: 0xF878, symBinAddr: 0x100012170, symSize: 0x28 }
  - { offsetInCU: 0x36803, offset: 0x36803, size: 0x8, addend: 0x0, symName: __ZNSt3__19allocatorIN2cv3MatEE10deallocateB8ue170006EPS2_m, symObjAddr: 0xF8A0, symBinAddr: 0x100012198, symSize: 0x44 }
  - { offsetInCU: 0x36845, offset: 0x36845, size: 0x8, addend: 0x0, symName: __ZNSt3__117__compressed_pairIPN2cv3MatENS_9allocatorIS2_EEE6secondB8ue170006Ev, symObjAddr: 0xF8E4, symBinAddr: 0x1000121DC, symSize: 0x24 }
  - { offsetInCU: 0x3686B, offset: 0x3686B, size: 0x8, addend: 0x0, symName: __ZNSt3__122__compressed_pair_elemINS_9allocatorIN2cv3MatEEELi1ELb1EE5__getB8ue170006Ev, symObjAddr: 0xF908, symBinAddr: 0x100012200, symSize: 0x14 }
  - { offsetInCU: 0x36891, offset: 0x36891, size: 0x8, addend: 0x0, symName: __ZNKSt3__16vectorIN2cv3MatENS_9allocatorIS2_EEE9__end_capB8ue170006Ev, symObjAddr: 0xF91C, symBinAddr: 0x100012214, symSize: 0x28 }
  - { offsetInCU: 0x368B7, offset: 0x368B7, size: 0x8, addend: 0x0, symName: __ZNKSt3__117__compressed_pairIPN2cv3MatENS_9allocatorIS2_EEE5firstB8ue170006Ev, symObjAddr: 0xF944, symBinAddr: 0x10001223C, symSize: 0x24 }
  - { offsetInCU: 0x368DD, offset: 0x368DD, size: 0x8, addend: 0x0, symName: __ZNKSt3__122__compressed_pair_elemIPN2cv3MatELi0ELb0EE5__getB8ue170006Ev, symObjAddr: 0xF968, symBinAddr: 0x100012260, symSize: 0x14 }
  - { offsetInCU: 0x36903, offset: 0x36903, size: 0x8, addend: 0x0, symName: __ZN2cv7Point3_IfEC2Ev, symObjAddr: 0xF97C, symBinAddr: 0x100012274, symSize: 0x24 }
  - { offsetInCU: 0x3692F, offset: 0x3692F, size: 0x8, addend: 0x0, symName: __ZNSt3__16vectorIN2cv3VecIhLi3EEENS_9allocatorIS3_EEEC2B8ue170006Ev, symObjAddr: 0xF9A0, symBinAddr: 0x100012298, symSize: 0x4C }
  - { offsetInCU: 0x36959, offset: 0x36959, size: 0x8, addend: 0x0, symName: __ZNSt3__117__compressed_pairIPN2cv3VecIhLi3EEENS_9allocatorIS3_EEEC1B8ue170006IDnNS_18__default_init_tagEEEOT_OT0_, symObjAddr: 0xF9EC, symBinAddr: 0x1000122E4, symSize: 0x3C }
  - { offsetInCU: 0x369B1, offset: 0x369B1, size: 0x8, addend: 0x0, symName: __ZNSt3__117__compressed_pairIPN2cv3VecIhLi3EEENS_9allocatorIS3_EEEC2B8ue170006IDnNS_18__default_init_tagEEEOT_OT0_, symObjAddr: 0xFA28, symBinAddr: 0x100012320, symSize: 0x40 }
  - { offsetInCU: 0x36A09, offset: 0x36A09, size: 0x8, addend: 0x0, symName: __ZNSt3__122__compressed_pair_elemIPN2cv3VecIhLi3EEELi0ELb0EEC2B8ue170006IDnvEEOT_, symObjAddr: 0xFA68, symBinAddr: 0x100012360, symSize: 0x1C }
  - { offsetInCU: 0x36A4B, offset: 0x36A4B, size: 0x8, addend: 0x0, symName: __ZNSt3__122__compressed_pair_elemINS_9allocatorIN2cv3VecIhLi3EEEEELi1ELb1EEC2B8ue170006ENS_18__default_init_tagE, symObjAddr: 0xFA84, symBinAddr: 0x10001237C, symSize: 0x2C }
  - { offsetInCU: 0x36A80, offset: 0x36A80, size: 0x8, addend: 0x0, symName: __ZNSt3__19allocatorIN2cv3VecIhLi3EEEEC2B8ue170006Ev, symObjAddr: 0xFAB0, symBinAddr: 0x1000123A8, symSize: 0x2C }
  - { offsetInCU: 0x36AAA, offset: 0x36AAA, size: 0x8, addend: 0x0, symName: __ZNSt3__116__non_trivial_ifILb1ENS_9allocatorIN2cv3VecIhLi3EEEEEEC2B8ue170006Ev, symObjAddr: 0xFADC, symBinAddr: 0x1000123D4, symSize: 0x14 }
  - { offsetInCU: 0x36AD4, offset: 0x36AD4, size: 0x8, addend: 0x0, symName: __ZNSt3__16vectorIN2cv3VecIhLi3EEENS_9allocatorIS3_EEED2B8ue170006Ev, symObjAddr: 0xFAF0, symBinAddr: 0x1000123E8, symSize: 0x44 }
  - { offsetInCU: 0x36AFE, offset: 0x36AFE, size: 0x8, addend: 0x0, symName: __ZNSt3__16vectorIN2cv3VecIhLi3EEENS_9allocatorIS3_EEE16__destroy_vectorC1B8ue170006ERS6_, symObjAddr: 0xFB34, symBinAddr: 0x10001242C, symSize: 0x34 }
  - { offsetInCU: 0x36B37, offset: 0x36B37, size: 0x8, addend: 0x0, symName: __ZNSt3__16vectorIN2cv3VecIhLi3EEENS_9allocatorIS3_EEE16__destroy_vectorclB8ue170006Ev, symObjAddr: 0xFB68, symBinAddr: 0x100012460, symSize: 0x90 }
  - { offsetInCU: 0x36B5D, offset: 0x36B5D, size: 0x8, addend: 0x0, symName: __ZNSt3__16vectorIN2cv3VecIhLi3EEENS_9allocatorIS3_EEE16__destroy_vectorC2B8ue170006ERS6_, symObjAddr: 0xFBF8, symBinAddr: 0x1000124F0, symSize: 0x20 }
  - { offsetInCU: 0x36B96, offset: 0x36B96, size: 0x8, addend: 0x0, symName: __ZNSt3__16vectorIN2cv3VecIhLi3EEENS_9allocatorIS3_EEE7__clearB8ue170006Ev, symObjAddr: 0xFC18, symBinAddr: 0x100012510, symSize: 0x28 }
  - { offsetInCU: 0x36BBC, offset: 0x36BBC, size: 0x8, addend: 0x0, symName: __ZNKSt3__16vectorIN2cv3VecIhLi3EEENS_9allocatorIS3_EEE17__annotate_deleteB8ue170006Ev, symObjAddr: 0xFC40, symBinAddr: 0x100012538, symSize: 0xD4 }
  - { offsetInCU: 0x36BE2, offset: 0x36BE2, size: 0x8, addend: 0x0, symName: __ZNSt3__116allocator_traitsINS_9allocatorIN2cv3VecIhLi3EEEEEE10deallocateB8ue170006ERS5_PS4_m, symObjAddr: 0xFD14, symBinAddr: 0x10001260C, symSize: 0x34 }
  - { offsetInCU: 0x36C24, offset: 0x36C24, size: 0x8, addend: 0x0, symName: __ZNSt3__16vectorIN2cv3VecIhLi3EEENS_9allocatorIS3_EEE7__allocB8ue170006Ev, symObjAddr: 0xFD48, symBinAddr: 0x100012640, symSize: 0x28 }
  - { offsetInCU: 0x36C4A, offset: 0x36C4A, size: 0x8, addend: 0x0, symName: __ZNKSt3__16vectorIN2cv3VecIhLi3EEENS_9allocatorIS3_EEE8capacityB8ue170006Ev, symObjAddr: 0xFD70, symBinAddr: 0x100012668, symSize: 0x40 }
  - { offsetInCU: 0x36C70, offset: 0x36C70, size: 0x8, addend: 0x0, symName: __ZNSt3__16vectorIN2cv3VecIhLi3EEENS_9allocatorIS3_EEE22__base_destruct_at_endB8ue170006EPS3_, symObjAddr: 0xFDB0, symBinAddr: 0x1000126A8, symSize: 0x8C }
  - { offsetInCU: 0x36CB4, offset: 0x36CB4, size: 0x8, addend: 0x0, symName: __ZNSt3__116allocator_traitsINS_9allocatorIN2cv3VecIhLi3EEEEEE7destroyB8ue170006IS4_vEEvRS5_PT_, symObjAddr: 0xFE3C, symBinAddr: 0x100012734, symSize: 0x2C }
  - { offsetInCU: 0x36CF1, offset: 0x36CF1, size: 0x8, addend: 0x0, symName: __ZNSt3__19allocatorIN2cv3VecIhLi3EEEE7destroyB8ue170006EPS3_, symObjAddr: 0xFE7C, symBinAddr: 0x100012774, symSize: 0x14 }
  - { offsetInCU: 0x36D25, offset: 0x36D25, size: 0x8, addend: 0x0, symName: __ZNKSt3__16vectorIN2cv3VecIhLi3EEENS_9allocatorIS3_EEE31__annotate_contiguous_containerB8ue170006EPKvS8_S8_S8_, symObjAddr: 0xFE90, symBinAddr: 0x100012788, symSize: 0x20 }
  - { offsetInCU: 0x36D77, offset: 0x36D77, size: 0x8, addend: 0x0, symName: __ZNKSt3__16vectorIN2cv3VecIhLi3EEENS_9allocatorIS3_EEE4dataB8ue170006Ev, symObjAddr: 0xFEB0, symBinAddr: 0x1000127A8, symSize: 0x28 }
  - { offsetInCU: 0x36D9D, offset: 0x36D9D, size: 0x8, addend: 0x0, symName: __ZNKSt3__16vectorIN2cv3VecIhLi3EEENS_9allocatorIS3_EEE4sizeB8ue170006Ev, symObjAddr: 0xFED8, symBinAddr: 0x1000127D0, symSize: 0x28 }
  - { offsetInCU: 0x36DC3, offset: 0x36DC3, size: 0x8, addend: 0x0, symName: __ZNSt3__19allocatorIN2cv3VecIhLi3EEEE10deallocateB8ue170006EPS3_m, symObjAddr: 0xFF00, symBinAddr: 0x1000127F8, symSize: 0x44 }
  - { offsetInCU: 0x36E05, offset: 0x36E05, size: 0x8, addend: 0x0, symName: __ZNSt3__117__compressed_pairIPN2cv3VecIhLi3EEENS_9allocatorIS3_EEE6secondB8ue170006Ev, symObjAddr: 0xFF44, symBinAddr: 0x10001283C, symSize: 0x24 }
  - { offsetInCU: 0x36E2B, offset: 0x36E2B, size: 0x8, addend: 0x0, symName: __ZNSt3__122__compressed_pair_elemINS_9allocatorIN2cv3VecIhLi3EEEEELi1ELb1EE5__getB8ue170006Ev, symObjAddr: 0xFF68, symBinAddr: 0x100012860, symSize: 0x14 }
  - { offsetInCU: 0x36E51, offset: 0x36E51, size: 0x8, addend: 0x0, symName: __ZNKSt3__16vectorIN2cv3VecIhLi3EEENS_9allocatorIS3_EEE9__end_capB8ue170006Ev, symObjAddr: 0xFF7C, symBinAddr: 0x100012874, symSize: 0x28 }
  - { offsetInCU: 0x36E77, offset: 0x36E77, size: 0x8, addend: 0x0, symName: __ZNKSt3__117__compressed_pairIPN2cv3VecIhLi3EEENS_9allocatorIS3_EEE5firstB8ue170006Ev, symObjAddr: 0xFFA4, symBinAddr: 0x10001289C, symSize: 0x24 }
  - { offsetInCU: 0x36E9D, offset: 0x36E9D, size: 0x8, addend: 0x0, symName: __ZNKSt3__122__compressed_pair_elemIPN2cv3VecIhLi3EEELi0ELb0EE5__getB8ue170006Ev, symObjAddr: 0xFFC8, symBinAddr: 0x1000128C0, symSize: 0x14 }
  - { offsetInCU: 0x36EC3, offset: 0x36EC3, size: 0x8, addend: 0x0, symName: __ZNKSt3__16vectorIN2cv3VecIhLi3EEENS_9allocatorIS3_EEE17__annotate_shrinkB8ue170006Em, symObjAddr: 0xFFDC, symBinAddr: 0x1000128D4, symSize: 0xD0 }
  - { offsetInCU: 0x36EF8, offset: 0x36EF8, size: 0x8, addend: 0x0, symName: __ZNSt3__16vectorIN2cv3VecIhLi3EEENS_9allocatorIS3_EEE9__end_capB8ue170006Ev, symObjAddr: 0x100AC, symBinAddr: 0x1000129A4, symSize: 0x28 }
  - { offsetInCU: 0x36F1E, offset: 0x36F1E, size: 0x8, addend: 0x0, symName: __ZNSt3__16vectorIN2cv3VecIhLi3EEENS_9allocatorIS3_EEE22__construct_one_at_endB8ue170006IJRKS3_EEEvDpOT_, symObjAddr: 0x100D4, symBinAddr: 0x1000129CC, symSize: 0x90 }
  - { offsetInCU: 0x36F6D, offset: 0x36F6D, size: 0x8, addend: 0x0, symName: __ZNSt3__16vectorIN2cv3VecIhLi3EEENS_9allocatorIS3_EEE21__push_back_slow_pathIRKS3_EEvOT_, symObjAddr: 0x10164, symBinAddr: 0x100012A5C, symSize: 0xD8 }
  - { offsetInCU: 0x36FCB, offset: 0x36FCB, size: 0x8, addend: 0x0, symName: __ZNSt3__117__compressed_pairIPN2cv3VecIhLi3EEENS_9allocatorIS3_EEE5firstB8ue170006Ev, symObjAddr: 0x1023C, symBinAddr: 0x100012B34, symSize: 0x24 }
  - { offsetInCU: 0x36FF1, offset: 0x36FF1, size: 0x8, addend: 0x0, symName: __ZNSt3__122__compressed_pair_elemIPN2cv3VecIhLi3EEELi0ELb0EE5__getB8ue170006Ev, symObjAddr: 0x10260, symBinAddr: 0x100012B58, symSize: 0x14 }
  - { offsetInCU: 0x37030, offset: 0x37030, size: 0x8, addend: 0x0, symName: __ZNSt3__16vectorIN2cv3VecIhLi3EEENS_9allocatorIS3_EEE21_ConstructTransactionC1B8ue170006ERS6_m, symObjAddr: 0x10274, symBinAddr: 0x100012B6C, symSize: 0x3C }
  - { offsetInCU: 0x37078, offset: 0x37078, size: 0x8, addend: 0x0, symName: __ZNSt3__116allocator_traitsINS_9allocatorIN2cv3VecIhLi3EEEEEE9constructB8ue170006IS4_JRKS4_EvEEvRS5_PT_DpOT0_, symObjAddr: 0x102B0, symBinAddr: 0x100012BA8, symSize: 0x34 }
  - { offsetInCU: 0x370CF, offset: 0x370CF, size: 0x8, addend: 0x0, symName: __ZNSt3__16vectorIN2cv3VecIhLi3EEENS_9allocatorIS3_EEE21_ConstructTransactionD1B8ue170006Ev, symObjAddr: 0x102E4, symBinAddr: 0x100012BDC, symSize: 0x2C }
  - { offsetInCU: 0x370F9, offset: 0x370F9, size: 0x8, addend: 0x0, symName: __ZNSt3__16vectorIN2cv3VecIhLi3EEENS_9allocatorIS3_EEE21_ConstructTransactionC2B8ue170006ERS6_m, symObjAddr: 0x10310, symBinAddr: 0x100012C08, symSize: 0x4C }
  - { offsetInCU: 0x37141, offset: 0x37141, size: 0x8, addend: 0x0, symName: __ZNSt3__19allocatorIN2cv3VecIhLi3EEEE9constructB8ue170006IS3_JRKS3_EEEvPT_DpOT0_, symObjAddr: 0x1035C, symBinAddr: 0x100012C54, symSize: 0x30 }
  - { offsetInCU: 0x37197, offset: 0x37197, size: 0x8, addend: 0x0, symName: __ZNSt3__16vectorIN2cv3VecIhLi3EEENS_9allocatorIS3_EEE21_ConstructTransactionD2B8ue170006Ev, symObjAddr: 0x1038C, symBinAddr: 0x100012C84, symSize: 0x20 }
  - { offsetInCU: 0x371C1, offset: 0x371C1, size: 0x8, addend: 0x0, symName: __ZNKSt3__16vectorIN2cv3VecIhLi3EEENS_9allocatorIS3_EEE11__recommendB8ue170006Em, symObjAddr: 0x103AC, symBinAddr: 0x100012CA4, symSize: 0xB4 }
  - { offsetInCU: 0x37216, offset: 0x37216, size: 0x8, addend: 0x0, symName: __ZNSt3__114__split_bufferIN2cv3VecIhLi3EEERNS_9allocatorIS3_EEEC1EmmS6_, symObjAddr: 0x10460, symBinAddr: 0x100012D58, symSize: 0x44 }
  - { offsetInCU: 0x3726C, offset: 0x3726C, size: 0x8, addend: 0x0, symName: __ZNSt3__114__split_bufferIN2cv3VecIhLi3EEERNS_9allocatorIS3_EEED1Ev, symObjAddr: 0x105B4, symBinAddr: 0x100012EAC, symSize: 0x2C }
  - { offsetInCU: 0x37298, offset: 0x37298, size: 0x8, addend: 0x0, symName: __ZNKSt3__16vectorIN2cv3VecIhLi3EEENS_9allocatorIS3_EEE8max_sizeEv, symObjAddr: 0x105E0, symBinAddr: 0x100012ED8, symSize: 0x60 }
  - { offsetInCU: 0x372C0, offset: 0x372C0, size: 0x8, addend: 0x0, symName: __ZNKSt3__16vectorIN2cv3VecIhLi3EEENS_9allocatorIS3_EEE20__throw_length_errorB8ue170006Ev, symObjAddr: 0x10640, symBinAddr: 0x100012F38, symSize: 0x1C }
  - { offsetInCU: 0x372F0, offset: 0x372F0, size: 0x8, addend: 0x0, symName: __ZNSt3__116allocator_traitsINS_9allocatorIN2cv3VecIhLi3EEEEEE8max_sizeB8ue170006IS5_vEEmRKS5_, symObjAddr: 0x1065C, symBinAddr: 0x100012F54, symSize: 0x24 }
  - { offsetInCU: 0x3731E, offset: 0x3731E, size: 0x8, addend: 0x0, symName: __ZNKSt3__16vectorIN2cv3VecIhLi3EEENS_9allocatorIS3_EEE7__allocB8ue170006Ev, symObjAddr: 0x10680, symBinAddr: 0x100012F78, symSize: 0x28 }
  - { offsetInCU: 0x37344, offset: 0x37344, size: 0x8, addend: 0x0, symName: __ZNKSt3__19allocatorIN2cv3VecIhLi3EEEE8max_sizeB8ue170006Ev, symObjAddr: 0x106A8, symBinAddr: 0x100012FA0, symSize: 0x14 }
  - { offsetInCU: 0x3736A, offset: 0x3736A, size: 0x8, addend: 0x0, symName: __ZNKSt3__117__compressed_pairIPN2cv3VecIhLi3EEENS_9allocatorIS3_EEE6secondB8ue170006Ev, symObjAddr: 0x106BC, symBinAddr: 0x100012FB4, symSize: 0x24 }
  - { offsetInCU: 0x37390, offset: 0x37390, size: 0x8, addend: 0x0, symName: __ZNKSt3__122__compressed_pair_elemINS_9allocatorIN2cv3VecIhLi3EEEEELi1ELb1EE5__getB8ue170006Ev, symObjAddr: 0x106E0, symBinAddr: 0x100012FD8, symSize: 0x14 }
  - { offsetInCU: 0x373B6, offset: 0x373B6, size: 0x8, addend: 0x0, symName: __ZNSt3__114__split_bufferIN2cv3VecIhLi3EEERNS_9allocatorIS3_EEEC2EmmS6_, symObjAddr: 0x106F4, symBinAddr: 0x100012FEC, symSize: 0xE0 }
  - { offsetInCU: 0x3742A, offset: 0x3742A, size: 0x8, addend: 0x0, symName: __ZNSt3__117__compressed_pairIPN2cv3VecIhLi3EEERNS_9allocatorIS3_EEEC1B8ue170006IDnS7_EEOT_OT0_, symObjAddr: 0x107D4, symBinAddr: 0x1000130CC, symSize: 0x3C }
  - { offsetInCU: 0x37482, offset: 0x37482, size: 0x8, addend: 0x0, symName: __ZNSt3__114__split_bufferIN2cv3VecIhLi3EEERNS_9allocatorIS3_EEE7__allocB8ue170006Ev, symObjAddr: 0x10850, symBinAddr: 0x100013148, symSize: 0x28 }
  - { offsetInCU: 0x374A8, offset: 0x374A8, size: 0x8, addend: 0x0, symName: __ZNSt3__114__split_bufferIN2cv3VecIhLi3EEERNS_9allocatorIS3_EEE9__end_capB8ue170006Ev, symObjAddr: 0x10878, symBinAddr: 0x100013170, symSize: 0x28 }
  - { offsetInCU: 0x374CE, offset: 0x374CE, size: 0x8, addend: 0x0, symName: __ZNSt3__117__compressed_pairIPN2cv3VecIhLi3EEERNS_9allocatorIS3_EEEC2B8ue170006IDnS7_EEOT_OT0_, symObjAddr: 0x108A0, symBinAddr: 0x100013198, symSize: 0x48 }
  - { offsetInCU: 0x37526, offset: 0x37526, size: 0x8, addend: 0x0, symName: __ZNSt3__122__compressed_pair_elemIRNS_9allocatorIN2cv3VecIhLi3EEEEELi1ELb0EEC2B8ue170006IS6_vEEOT_, symObjAddr: 0x108E8, symBinAddr: 0x1000131E0, symSize: 0x20 }
  - { offsetInCU: 0x37568, offset: 0x37568, size: 0x8, addend: 0x0, symName: __ZNSt3__19allocatorIN2cv3VecIhLi3EEEE8allocateB8ue170006Em, symObjAddr: 0x10908, symBinAddr: 0x100013200, symSize: 0x5C }
  - { offsetInCU: 0x3759C, offset: 0x3759C, size: 0x8, addend: 0x0, symName: __ZNSt3__117__compressed_pairIPN2cv3VecIhLi3EEERNS_9allocatorIS3_EEE6secondB8ue170006Ev, symObjAddr: 0x10964, symBinAddr: 0x10001325C, symSize: 0x28 }
  - { offsetInCU: 0x375C2, offset: 0x375C2, size: 0x8, addend: 0x0, symName: __ZNSt3__122__compressed_pair_elemIRNS_9allocatorIN2cv3VecIhLi3EEEEELi1ELb0EE5__getB8ue170006Ev, symObjAddr: 0x1098C, symBinAddr: 0x100013284, symSize: 0x18 }
  - { offsetInCU: 0x375E8, offset: 0x375E8, size: 0x8, addend: 0x0, symName: __ZNSt3__117__compressed_pairIPN2cv3VecIhLi3EEERNS_9allocatorIS3_EEE5firstB8ue170006Ev, symObjAddr: 0x109A4, symBinAddr: 0x10001329C, symSize: 0x24 }
  - { offsetInCU: 0x3760E, offset: 0x3760E, size: 0x8, addend: 0x0, symName: __ZNSt3__116reverse_iteratorIPN2cv3VecIhLi3EEEEC1B8ue170006ES4_, symObjAddr: 0x10AF4, symBinAddr: 0x1000133EC, symSize: 0x34 }
  - { offsetInCU: 0x37646, offset: 0x37646, size: 0x8, addend: 0x0, symName: __ZNKSt3__116reverse_iteratorIPN2cv3VecIhLi3EEEE4baseB8ue170006Ev, symObjAddr: 0x10B28, symBinAddr: 0x100013420, symSize: 0x18 }
  - { offsetInCU: 0x3766C, offset: 0x3766C, size: 0x8, addend: 0x0, symName: __ZNKSt3__16vectorIN2cv3VecIhLi3EEENS_9allocatorIS3_EEE14__annotate_newB8ue170006Em, symObjAddr: 0x10B7C, symBinAddr: 0x100013474, symSize: 0xC8 }
  - { offsetInCU: 0x376A1, offset: 0x376A1, size: 0x8, addend: 0x0, symName: __ZNSt3__129_AllocatorDestroyRangeReverseINS_9allocatorIN2cv3VecIhLi3EEEEENS_16reverse_iteratorIPS4_EEEC1B8ue170006ERS5_RS8_SB_, symObjAddr: 0x10C90, symBinAddr: 0x100013588, symSize: 0x44 }
  - { offsetInCU: 0x376F8, offset: 0x376F8, size: 0x8, addend: 0x0, symName: __ZNKSt3__116reverse_iteratorIPN2cv3VecIhLi3EEEEdeB8ue170006Ev, symObjAddr: 0x10D40, symBinAddr: 0x100013638, symSize: 0x28 }
  - { offsetInCU: 0x3772C, offset: 0x3772C, size: 0x8, addend: 0x0, symName: __ZNSt3__116reverse_iteratorIPN2cv3VecIhLi3EEEEppB8ue170006Ev, symObjAddr: 0x10D68, symBinAddr: 0x100013660, symSize: 0x20 }
  - { offsetInCU: 0x37752, offset: 0x37752, size: 0x8, addend: 0x0, symName: __ZNSt3__128__exception_guard_exceptionsINS_29_AllocatorDestroyRangeReverseINS_9allocatorIN2cv3VecIhLi3EEEEENS_16reverse_iteratorIPS5_EEEEE10__completeB8ue170006Ev, symObjAddr: 0x10D88, symBinAddr: 0x100013680, symSize: 0x1C }
  - { offsetInCU: 0x37778, offset: 0x37778, size: 0x8, addend: 0x0, symName: __ZNSt3__128__exception_guard_exceptionsINS_29_AllocatorDestroyRangeReverseINS_9allocatorIN2cv3VecIhLi3EEEEENS_16reverse_iteratorIPS5_EEEEED1B8ue170006Ev, symObjAddr: 0x10DA4, symBinAddr: 0x10001369C, symSize: 0x2C }
  - { offsetInCU: 0x377A2, offset: 0x377A2, size: 0x8, addend: 0x0, symName: __ZNSt3__128__exception_guard_exceptionsINS_29_AllocatorDestroyRangeReverseINS_9allocatorIN2cv3VecIhLi3EEEEENS_16reverse_iteratorIPS5_EEEEEC1B8ue170006ESA_, symObjAddr: 0x10DD0, symBinAddr: 0x1000136C8, symSize: 0x34 }
  - { offsetInCU: 0x377DB, offset: 0x377DB, size: 0x8, addend: 0x0, symName: __ZNSt3__128__exception_guard_exceptionsINS_29_AllocatorDestroyRangeReverseINS_9allocatorIN2cv3VecIhLi3EEEEENS_16reverse_iteratorIPS5_EEEEEC2B8ue170006ESA_, symObjAddr: 0x10E04, symBinAddr: 0x1000136FC, symSize: 0x30 }
  - { offsetInCU: 0x37814, offset: 0x37814, size: 0x8, addend: 0x0, symName: __ZNSt3__129_AllocatorDestroyRangeReverseINS_9allocatorIN2cv3VecIhLi3EEEEENS_16reverse_iteratorIPS4_EEEC2B8ue170006ERS5_RS8_SB_, symObjAddr: 0x10E34, symBinAddr: 0x10001372C, symSize: 0x38 }
  - { offsetInCU: 0x37870, offset: 0x37870, size: 0x8, addend: 0x0, symName: __ZNSt3__119__to_address_helperINS_16reverse_iteratorIPN2cv3VecIhLi3EEEEEvE6__callB8ue170006ERKS6_, symObjAddr: 0x10E6C, symBinAddr: 0x100013764, symSize: 0x38 }
  - { offsetInCU: 0x37893, offset: 0x37893, size: 0x8, addend: 0x0, symName: __ZNKSt3__116reverse_iteratorIPN2cv3VecIhLi3EEEEptB8ue170006Ev, symObjAddr: 0x10EA4, symBinAddr: 0x10001379C, symSize: 0x24 }
  - { offsetInCU: 0x378B9, offset: 0x378B9, size: 0x8, addend: 0x0, symName: __ZNSt3__128__exception_guard_exceptionsINS_29_AllocatorDestroyRangeReverseINS_9allocatorIN2cv3VecIhLi3EEEEENS_16reverse_iteratorIPS5_EEEEED2B8ue170006Ev, symObjAddr: 0x10EC8, symBinAddr: 0x1000137C0, symSize: 0x50 }
  - { offsetInCU: 0x378E3, offset: 0x378E3, size: 0x8, addend: 0x0, symName: __ZNKSt3__129_AllocatorDestroyRangeReverseINS_9allocatorIN2cv3VecIhLi3EEEEENS_16reverse_iteratorIPS4_EEEclB8ue170006Ev, symObjAddr: 0x10F18, symBinAddr: 0x100013810, symSize: 0xB4 }
  - { offsetInCU: 0x3790A, offset: 0x3790A, size: 0x8, addend: 0x0, symName: __ZNSt3__116reverse_iteratorINS0_IPN2cv3VecIhLi3EEEEEEC1B8ue170006ES5_, symObjAddr: 0x1103C, symBinAddr: 0x100013934, symSize: 0x3C }
  - { offsetInCU: 0x37942, offset: 0x37942, size: 0x8, addend: 0x0, symName: __ZNSt3__116reverse_iteratorINS0_IPN2cv3VecIhLi3EEEEEEppB8ue170006Ev, symObjAddr: 0x110FC, symBinAddr: 0x1000139F4, symSize: 0x30 }
  - { offsetInCU: 0x37968, offset: 0x37968, size: 0x8, addend: 0x0, symName: __ZNKSt3__116reverse_iteratorINS0_IPN2cv3VecIhLi3EEEEEE4baseB8ue170006Ev, symObjAddr: 0x1112C, symBinAddr: 0x100013A24, symSize: 0x24 }
  - { offsetInCU: 0x37993, offset: 0x37993, size: 0x8, addend: 0x0, symName: __ZNSt3__119__to_address_helperINS_16reverse_iteratorINS1_IPN2cv3VecIhLi3EEEEEEEvE6__callB8ue170006ERKS7_, symObjAddr: 0x11150, symBinAddr: 0x100013A48, symSize: 0x38 }
  - { offsetInCU: 0x379B6, offset: 0x379B6, size: 0x8, addend: 0x0, symName: __ZNKSt3__116reverse_iteratorINS0_IPN2cv3VecIhLi3EEEEEEptB8ue170006Ev, symObjAddr: 0x11188, symBinAddr: 0x100013A80, symSize: 0x24 }
  - { offsetInCU: 0x379DC, offset: 0x379DC, size: 0x8, addend: 0x0, symName: __ZNKSt3__116reverse_iteratorINS0_IPN2cv3VecIhLi3EEEEEEdeB8ue170006Ev, symObjAddr: 0x111AC, symBinAddr: 0x100013AA4, symSize: 0x34 }
  - { offsetInCU: 0x37A10, offset: 0x37A10, size: 0x8, addend: 0x0, symName: __ZNSt3__116reverse_iteratorIPN2cv3VecIhLi3EEEEmmB8ue170006Ev, symObjAddr: 0x111E0, symBinAddr: 0x100013AD8, symSize: 0x20 }
  - { offsetInCU: 0x37A36, offset: 0x37A36, size: 0x8, addend: 0x0, symName: __ZNSt3__116reverse_iteratorINS0_IPN2cv3VecIhLi3EEEEEEC2B8ue170006ES5_, symObjAddr: 0x11200, symBinAddr: 0x100013AF8, symSize: 0x2C }
  - { offsetInCU: 0x37A6E, offset: 0x37A6E, size: 0x8, addend: 0x0, symName: __ZNSt3__116reverse_iteratorIPN2cv3VecIhLi3EEEEC2B8ue170006ES4_, symObjAddr: 0x1122C, symBinAddr: 0x100013B24, symSize: 0x28 }
  - { offsetInCU: 0x37AA6, offset: 0x37AA6, size: 0x8, addend: 0x0, symName: __ZNSt3__114__split_bufferIN2cv3VecIhLi3EEERNS_9allocatorIS3_EEED2Ev, symObjAddr: 0x11254, symBinAddr: 0x100013B4C, symSize: 0x8C }
  - { offsetInCU: 0x37AD2, offset: 0x37AD2, size: 0x8, addend: 0x0, symName: __ZNSt3__114__split_bufferIN2cv3VecIhLi3EEERNS_9allocatorIS3_EEE5clearB8ue170006Ev, symObjAddr: 0x112E0, symBinAddr: 0x100013BD8, symSize: 0x28 }
  - { offsetInCU: 0x37AF8, offset: 0x37AF8, size: 0x8, addend: 0x0, symName: __ZNKSt3__114__split_bufferIN2cv3VecIhLi3EEERNS_9allocatorIS3_EEE8capacityB8ue170006Ev, symObjAddr: 0x11308, symBinAddr: 0x100013C00, symSize: 0x40 }
  - { offsetInCU: 0x37B1E, offset: 0x37B1E, size: 0x8, addend: 0x0, symName: __ZNSt3__114__split_bufferIN2cv3VecIhLi3EEERNS_9allocatorIS3_EEE17__destruct_at_endB8ue170006EPS3_, symObjAddr: 0x11348, symBinAddr: 0x100013C40, symSize: 0x2C }
  - { offsetInCU: 0x37B52, offset: 0x37B52, size: 0x8, addend: 0x0, symName: __ZNSt3__114__split_bufferIN2cv3VecIhLi3EEERNS_9allocatorIS3_EEE17__destruct_at_endB8ue170006EPS3_NS_17integral_constantIbLb0EEE, symObjAddr: 0x11374, symBinAddr: 0x100013C6C, symSize: 0x80 }
  - { offsetInCU: 0x37B93, offset: 0x37B93, size: 0x8, addend: 0x0, symName: __ZNKSt3__114__split_bufferIN2cv3VecIhLi3EEERNS_9allocatorIS3_EEE9__end_capB8ue170006Ev, symObjAddr: 0x113F4, symBinAddr: 0x100013CEC, symSize: 0x28 }
  - { offsetInCU: 0x37BB9, offset: 0x37BB9, size: 0x8, addend: 0x0, symName: __ZNKSt3__117__compressed_pairIPN2cv3VecIhLi3EEERNS_9allocatorIS3_EEE5firstB8ue170006Ev, symObjAddr: 0x1141C, symBinAddr: 0x100013D14, symSize: 0x24 }
  - { offsetInCU: 0x37BDF, offset: 0x37BDF, size: 0x8, addend: 0x0, symName: __ZN2cv3VecIdLi4EEC2Edddd, symObjAddr: 0x11440, symBinAddr: 0x100013D38, symSize: 0x4C }
  - { offsetInCU: 0x37C47, offset: 0x37C47, size: 0x8, addend: 0x0, symName: __ZN2cv4MatxIdLi4ELi1EEC2Edddd, symObjAddr: 0x1148C, symBinAddr: 0x100013D84, symSize: 0x98 }
  - { offsetInCU: 0x37CC9, offset: 0x37CC9, size: 0x8, addend: 0x0, symName: __ZN2cv3VecIdLi4EEixEi, symObjAddr: 0x11524, symBinAddr: 0x100013E1C, symSize: 0x20 }
  - { offsetInCU: 0x37D00, offset: 0x37D00, size: 0x8, addend: 0x0, symName: __ZN2cv3MatC2IdLi4EEERKNS_3VecIT_XT0_EEEb, symObjAddr: 0x11544, symBinAddr: 0x100013E3C, symSize: 0x1C8 }
  - { offsetInCU: 0x37D5B, offset: 0x37D5B, size: 0x8, addend: 0x0, symName: __ZN2cv7MatSizeC1EPi, symObjAddr: 0x1170C, symBinAddr: 0x100014004, symSize: 0x34 }
  - { offsetInCU: 0x37D97, offset: 0x37D97, size: 0x8, addend: 0x0, symName: __ZN2cv7MatStepC1Em, symObjAddr: 0x11740, symBinAddr: 0x100014038, symSize: 0x34 }
  - { offsetInCU: 0x37DD3, offset: 0x37DD3, size: 0x8, addend: 0x0, symName: __ZN2cv7MatStepixEi, symObjAddr: 0x11774, symBinAddr: 0x10001406C, symSize: 0x24 }
  - { offsetInCU: 0x37E0B, offset: 0x37E0B, size: 0x8, addend: 0x0, symName: __ZN2cv7MatSizeC2EPi, symObjAddr: 0x11798, symBinAddr: 0x100014090, symSize: 0x20 }
  - { offsetInCU: 0x37E47, offset: 0x37E47, size: 0x8, addend: 0x0, symName: __ZN2cv7MatStepC2Em, symObjAddr: 0x117B8, symBinAddr: 0x1000140B0, symSize: 0x34 }
  - { offsetInCU: 0x37E83, offset: 0x37E83, size: 0x8, addend: 0x0, symName: __ZNSt3__16vectorIN2cv3MatENS_9allocatorIS2_EEE9__end_capB8ue170006Ev, symObjAddr: 0x117EC, symBinAddr: 0x1000140E4, symSize: 0x28 }
  - { offsetInCU: 0x37EA9, offset: 0x37EA9, size: 0x8, addend: 0x0, symName: __ZNSt3__16vectorIN2cv3MatENS_9allocatorIS2_EEE22__construct_one_at_endB8ue170006IJRKS2_EEEvDpOT_, symObjAddr: 0x11814, symBinAddr: 0x10001410C, symSize: 0x90 }
  - { offsetInCU: 0x37EF8, offset: 0x37EF8, size: 0x8, addend: 0x0, symName: __ZNSt3__16vectorIN2cv3MatENS_9allocatorIS2_EEE21__push_back_slow_pathIRKS2_EEvOT_, symObjAddr: 0x118A4, symBinAddr: 0x10001419C, symSize: 0xD8 }
  - { offsetInCU: 0x37F56, offset: 0x37F56, size: 0x8, addend: 0x0, symName: __ZNSt3__117__compressed_pairIPN2cv3MatENS_9allocatorIS2_EEE5firstB8ue170006Ev, symObjAddr: 0x1197C, symBinAddr: 0x100014274, symSize: 0x24 }
  - { offsetInCU: 0x37F7C, offset: 0x37F7C, size: 0x8, addend: 0x0, symName: __ZNSt3__122__compressed_pair_elemIPN2cv3MatELi0ELb0EE5__getB8ue170006Ev, symObjAddr: 0x119A0, symBinAddr: 0x100014298, symSize: 0x14 }
  - { offsetInCU: 0x37FBB, offset: 0x37FBB, size: 0x8, addend: 0x0, symName: __ZNSt3__16vectorIN2cv3MatENS_9allocatorIS2_EEE21_ConstructTransactionC1B8ue170006ERS5_m, symObjAddr: 0x119B4, symBinAddr: 0x1000142AC, symSize: 0x3C }
  - { offsetInCU: 0x38003, offset: 0x38003, size: 0x8, addend: 0x0, symName: __ZNSt3__116allocator_traitsINS_9allocatorIN2cv3MatEEEE9constructB8ue170006IS3_JRKS3_EvEEvRS4_PT_DpOT0_, symObjAddr: 0x119F0, symBinAddr: 0x1000142E8, symSize: 0x34 }
  - { offsetInCU: 0x3805A, offset: 0x3805A, size: 0x8, addend: 0x0, symName: __ZNSt3__16vectorIN2cv3MatENS_9allocatorIS2_EEE21_ConstructTransactionD1B8ue170006Ev, symObjAddr: 0x11A24, symBinAddr: 0x10001431C, symSize: 0x2C }
  - { offsetInCU: 0x38084, offset: 0x38084, size: 0x8, addend: 0x0, symName: __ZNSt3__16vectorIN2cv3MatENS_9allocatorIS2_EEE21_ConstructTransactionC2B8ue170006ERS5_m, symObjAddr: 0x11A50, symBinAddr: 0x100014348, symSize: 0x4C }
  - { offsetInCU: 0x380CC, offset: 0x380CC, size: 0x8, addend: 0x0, symName: __ZNSt3__19allocatorIN2cv3MatEE9constructB8ue170006IS2_JRKS2_EEEvPT_DpOT0_, symObjAddr: 0x11A9C, symBinAddr: 0x100014394, symSize: 0x30 }
  - { offsetInCU: 0x38122, offset: 0x38122, size: 0x8, addend: 0x0, symName: __ZNSt3__16vectorIN2cv3MatENS_9allocatorIS2_EEE21_ConstructTransactionD2B8ue170006Ev, symObjAddr: 0x11ACC, symBinAddr: 0x1000143C4, symSize: 0x20 }
  - { offsetInCU: 0x3814C, offset: 0x3814C, size: 0x8, addend: 0x0, symName: __ZNKSt3__16vectorIN2cv3MatENS_9allocatorIS2_EEE11__recommendB8ue170006Em, symObjAddr: 0x11AEC, symBinAddr: 0x1000143E4, symSize: 0xB4 }
  - { offsetInCU: 0x381A1, offset: 0x381A1, size: 0x8, addend: 0x0, symName: __ZNSt3__114__split_bufferIN2cv3MatERNS_9allocatorIS2_EEEC1EmmS5_, symObjAddr: 0x11BA0, symBinAddr: 0x100014498, symSize: 0x44 }
  - { offsetInCU: 0x381F7, offset: 0x381F7, size: 0x8, addend: 0x0, symName: __ZNSt3__114__split_bufferIN2cv3MatERNS_9allocatorIS2_EEED1Ev, symObjAddr: 0x11CF4, symBinAddr: 0x1000145EC, symSize: 0x2C }
  - { offsetInCU: 0x38223, offset: 0x38223, size: 0x8, addend: 0x0, symName: __ZNKSt3__16vectorIN2cv3MatENS_9allocatorIS2_EEE8max_sizeEv, symObjAddr: 0x11D20, symBinAddr: 0x100014618, symSize: 0x60 }
  - { offsetInCU: 0x3824B, offset: 0x3824B, size: 0x8, addend: 0x0, symName: __ZNKSt3__16vectorIN2cv3MatENS_9allocatorIS2_EEE20__throw_length_errorB8ue170006Ev, symObjAddr: 0x11D80, symBinAddr: 0x100014678, symSize: 0x1C }
  - { offsetInCU: 0x3827B, offset: 0x3827B, size: 0x8, addend: 0x0, symName: __ZNSt3__116allocator_traitsINS_9allocatorIN2cv3MatEEEE8max_sizeB8ue170006IS4_vEEmRKS4_, symObjAddr: 0x11D9C, symBinAddr: 0x100014694, symSize: 0x24 }
  - { offsetInCU: 0x382A9, offset: 0x382A9, size: 0x8, addend: 0x0, symName: __ZNKSt3__16vectorIN2cv3MatENS_9allocatorIS2_EEE7__allocB8ue170006Ev, symObjAddr: 0x11DC0, symBinAddr: 0x1000146B8, symSize: 0x28 }
  - { offsetInCU: 0x382CF, offset: 0x382CF, size: 0x8, addend: 0x0, symName: __ZNKSt3__19allocatorIN2cv3MatEE8max_sizeB8ue170006Ev, symObjAddr: 0x11DE8, symBinAddr: 0x1000146E0, symSize: 0x18 }
  - { offsetInCU: 0x382F5, offset: 0x382F5, size: 0x8, addend: 0x0, symName: __ZNKSt3__117__compressed_pairIPN2cv3MatENS_9allocatorIS2_EEE6secondB8ue170006Ev, symObjAddr: 0x11E00, symBinAddr: 0x1000146F8, symSize: 0x24 }
  - { offsetInCU: 0x3831B, offset: 0x3831B, size: 0x8, addend: 0x0, symName: __ZNKSt3__122__compressed_pair_elemINS_9allocatorIN2cv3MatEEELi1ELb1EE5__getB8ue170006Ev, symObjAddr: 0x11E24, symBinAddr: 0x10001471C, symSize: 0x14 }
  - { offsetInCU: 0x38341, offset: 0x38341, size: 0x8, addend: 0x0, symName: __ZNSt3__114__split_bufferIN2cv3MatERNS_9allocatorIS2_EEEC2EmmS5_, symObjAddr: 0x11E38, symBinAddr: 0x100014730, symSize: 0xE0 }
  - { offsetInCU: 0x383B5, offset: 0x383B5, size: 0x8, addend: 0x0, symName: __ZNSt3__117__compressed_pairIPN2cv3MatERNS_9allocatorIS2_EEEC1B8ue170006IDnS6_EEOT_OT0_, symObjAddr: 0x11F18, symBinAddr: 0x100014810, symSize: 0x3C }
  - { offsetInCU: 0x3840D, offset: 0x3840D, size: 0x8, addend: 0x0, symName: __ZNSt3__114__split_bufferIN2cv3MatERNS_9allocatorIS2_EEE7__allocB8ue170006Ev, symObjAddr: 0x11F94, symBinAddr: 0x10001488C, symSize: 0x28 }
  - { offsetInCU: 0x38433, offset: 0x38433, size: 0x8, addend: 0x0, symName: __ZNSt3__114__split_bufferIN2cv3MatERNS_9allocatorIS2_EEE9__end_capB8ue170006Ev, symObjAddr: 0x11FBC, symBinAddr: 0x1000148B4, symSize: 0x28 }
  - { offsetInCU: 0x38459, offset: 0x38459, size: 0x8, addend: 0x0, symName: __ZNSt3__117__compressed_pairIPN2cv3MatERNS_9allocatorIS2_EEEC2B8ue170006IDnS6_EEOT_OT0_, symObjAddr: 0x11FE4, symBinAddr: 0x1000148DC, symSize: 0x48 }
  - { offsetInCU: 0x384B1, offset: 0x384B1, size: 0x8, addend: 0x0, symName: __ZNSt3__122__compressed_pair_elemIRNS_9allocatorIN2cv3MatEEELi1ELb0EEC2B8ue170006IS5_vEEOT_, symObjAddr: 0x1202C, symBinAddr: 0x100014924, symSize: 0x20 }
  - { offsetInCU: 0x384F3, offset: 0x384F3, size: 0x8, addend: 0x0, symName: __ZNSt3__19allocatorIN2cv3MatEE8allocateB8ue170006Em, symObjAddr: 0x1204C, symBinAddr: 0x100014944, symSize: 0x5C }
  - { offsetInCU: 0x38527, offset: 0x38527, size: 0x8, addend: 0x0, symName: __ZNSt3__117__compressed_pairIPN2cv3MatERNS_9allocatorIS2_EEE6secondB8ue170006Ev, symObjAddr: 0x120A8, symBinAddr: 0x1000149A0, symSize: 0x28 }
  - { offsetInCU: 0x3854D, offset: 0x3854D, size: 0x8, addend: 0x0, symName: __ZNSt3__122__compressed_pair_elemIRNS_9allocatorIN2cv3MatEEELi1ELb0EE5__getB8ue170006Ev, symObjAddr: 0x120D0, symBinAddr: 0x1000149C8, symSize: 0x18 }
  - { offsetInCU: 0x38573, offset: 0x38573, size: 0x8, addend: 0x0, symName: __ZNSt3__117__compressed_pairIPN2cv3MatERNS_9allocatorIS2_EEE5firstB8ue170006Ev, symObjAddr: 0x120E8, symBinAddr: 0x1000149E0, symSize: 0x24 }
  - { offsetInCU: 0x38599, offset: 0x38599, size: 0x8, addend: 0x0, symName: __ZNSt3__116reverse_iteratorIPN2cv3MatEEC1B8ue170006ES3_, symObjAddr: 0x12238, symBinAddr: 0x100014B30, symSize: 0x34 }
  - { offsetInCU: 0x385D1, offset: 0x385D1, size: 0x8, addend: 0x0, symName: __ZNKSt3__116reverse_iteratorIPN2cv3MatEE4baseB8ue170006Ev, symObjAddr: 0x1226C, symBinAddr: 0x100014B64, symSize: 0x18 }
  - { offsetInCU: 0x385F7, offset: 0x385F7, size: 0x8, addend: 0x0, symName: __ZNKSt3__16vectorIN2cv3MatENS_9allocatorIS2_EEE14__annotate_newB8ue170006Em, symObjAddr: 0x122C0, symBinAddr: 0x100014BB8, symSize: 0xC8 }
  - { offsetInCU: 0x3862C, offset: 0x3862C, size: 0x8, addend: 0x0, symName: __ZNSt3__129_AllocatorDestroyRangeReverseINS_9allocatorIN2cv3MatEEENS_16reverse_iteratorIPS3_EEEC1B8ue170006ERS4_RS7_SA_, symObjAddr: 0x123D4, symBinAddr: 0x100014CCC, symSize: 0x44 }
  - { offsetInCU: 0x38683, offset: 0x38683, size: 0x8, addend: 0x0, symName: __ZNKSt3__116reverse_iteratorIPN2cv3MatEEdeB8ue170006Ev, symObjAddr: 0x12484, symBinAddr: 0x100014D7C, symSize: 0x28 }
  - { offsetInCU: 0x386B7, offset: 0x386B7, size: 0x8, addend: 0x0, symName: __ZNSt3__116reverse_iteratorIPN2cv3MatEEppB8ue170006Ev, symObjAddr: 0x124AC, symBinAddr: 0x100014DA4, symSize: 0x20 }
  - { offsetInCU: 0x386DD, offset: 0x386DD, size: 0x8, addend: 0x0, symName: __ZNSt3__128__exception_guard_exceptionsINS_29_AllocatorDestroyRangeReverseINS_9allocatorIN2cv3MatEEENS_16reverse_iteratorIPS4_EEEEE10__completeB8ue170006Ev, symObjAddr: 0x124CC, symBinAddr: 0x100014DC4, symSize: 0x1C }
  - { offsetInCU: 0x38703, offset: 0x38703, size: 0x8, addend: 0x0, symName: __ZNSt3__128__exception_guard_exceptionsINS_29_AllocatorDestroyRangeReverseINS_9allocatorIN2cv3MatEEENS_16reverse_iteratorIPS4_EEEEED1B8ue170006Ev, symObjAddr: 0x124E8, symBinAddr: 0x100014DE0, symSize: 0x2C }
  - { offsetInCU: 0x3872D, offset: 0x3872D, size: 0x8, addend: 0x0, symName: __ZNSt3__128__exception_guard_exceptionsINS_29_AllocatorDestroyRangeReverseINS_9allocatorIN2cv3MatEEENS_16reverse_iteratorIPS4_EEEEEC1B8ue170006ES9_, symObjAddr: 0x12514, symBinAddr: 0x100014E0C, symSize: 0x34 }
  - { offsetInCU: 0x38766, offset: 0x38766, size: 0x8, addend: 0x0, symName: __ZNSt3__128__exception_guard_exceptionsINS_29_AllocatorDestroyRangeReverseINS_9allocatorIN2cv3MatEEENS_16reverse_iteratorIPS4_EEEEEC2B8ue170006ES9_, symObjAddr: 0x12548, symBinAddr: 0x100014E40, symSize: 0x30 }
  - { offsetInCU: 0x3879F, offset: 0x3879F, size: 0x8, addend: 0x0, symName: __ZNSt3__129_AllocatorDestroyRangeReverseINS_9allocatorIN2cv3MatEEENS_16reverse_iteratorIPS3_EEEC2B8ue170006ERS4_RS7_SA_, symObjAddr: 0x12578, symBinAddr: 0x100014E70, symSize: 0x38 }
  - { offsetInCU: 0x387FB, offset: 0x387FB, size: 0x8, addend: 0x0, symName: __ZNSt3__119__to_address_helperINS_16reverse_iteratorIPN2cv3MatEEEvE6__callB8ue170006ERKS5_, symObjAddr: 0x125B0, symBinAddr: 0x100014EA8, symSize: 0x38 }
  - { offsetInCU: 0x3881E, offset: 0x3881E, size: 0x8, addend: 0x0, symName: __ZNKSt3__116reverse_iteratorIPN2cv3MatEEptB8ue170006Ev, symObjAddr: 0x125E8, symBinAddr: 0x100014EE0, symSize: 0x24 }
  - { offsetInCU: 0x38844, offset: 0x38844, size: 0x8, addend: 0x0, symName: __ZNSt3__128__exception_guard_exceptionsINS_29_AllocatorDestroyRangeReverseINS_9allocatorIN2cv3MatEEENS_16reverse_iteratorIPS4_EEEEED2B8ue170006Ev, symObjAddr: 0x1260C, symBinAddr: 0x100014F04, symSize: 0x50 }
  - { offsetInCU: 0x3886E, offset: 0x3886E, size: 0x8, addend: 0x0, symName: __ZNKSt3__129_AllocatorDestroyRangeReverseINS_9allocatorIN2cv3MatEEENS_16reverse_iteratorIPS3_EEEclB8ue170006Ev, symObjAddr: 0x1265C, symBinAddr: 0x100014F54, symSize: 0xB4 }
  - { offsetInCU: 0x38895, offset: 0x38895, size: 0x8, addend: 0x0, symName: __ZNSt3__116reverse_iteratorINS0_IPN2cv3MatEEEEC1B8ue170006ES4_, symObjAddr: 0x12780, symBinAddr: 0x100015078, symSize: 0x3C }
  - { offsetInCU: 0x388CD, offset: 0x388CD, size: 0x8, addend: 0x0, symName: __ZNSt3__116reverse_iteratorINS0_IPN2cv3MatEEEEppB8ue170006Ev, symObjAddr: 0x12840, symBinAddr: 0x100015138, symSize: 0x30 }
  - { offsetInCU: 0x388F3, offset: 0x388F3, size: 0x8, addend: 0x0, symName: __ZNKSt3__116reverse_iteratorINS0_IPN2cv3MatEEEE4baseB8ue170006Ev, symObjAddr: 0x12870, symBinAddr: 0x100015168, symSize: 0x24 }
  - { offsetInCU: 0x3891E, offset: 0x3891E, size: 0x8, addend: 0x0, symName: __ZNSt3__119__to_address_helperINS_16reverse_iteratorINS1_IPN2cv3MatEEEEEvE6__callB8ue170006ERKS6_, symObjAddr: 0x12894, symBinAddr: 0x10001518C, symSize: 0x38 }
  - { offsetInCU: 0x38941, offset: 0x38941, size: 0x8, addend: 0x0, symName: __ZNKSt3__116reverse_iteratorINS0_IPN2cv3MatEEEEptB8ue170006Ev, symObjAddr: 0x128CC, symBinAddr: 0x1000151C4, symSize: 0x24 }
  - { offsetInCU: 0x38967, offset: 0x38967, size: 0x8, addend: 0x0, symName: __ZNKSt3__116reverse_iteratorINS0_IPN2cv3MatEEEEdeB8ue170006Ev, symObjAddr: 0x128F0, symBinAddr: 0x1000151E8, symSize: 0x34 }
  - { offsetInCU: 0x3899B, offset: 0x3899B, size: 0x8, addend: 0x0, symName: __ZNSt3__116reverse_iteratorIPN2cv3MatEEmmB8ue170006Ev, symObjAddr: 0x12924, symBinAddr: 0x10001521C, symSize: 0x20 }
  - { offsetInCU: 0x389C1, offset: 0x389C1, size: 0x8, addend: 0x0, symName: __ZNSt3__116reverse_iteratorINS0_IPN2cv3MatEEEEC2B8ue170006ES4_, symObjAddr: 0x12944, symBinAddr: 0x10001523C, symSize: 0x2C }
  - { offsetInCU: 0x389F9, offset: 0x389F9, size: 0x8, addend: 0x0, symName: __ZNSt3__116reverse_iteratorIPN2cv3MatEEC2B8ue170006ES3_, symObjAddr: 0x12970, symBinAddr: 0x100015268, symSize: 0x28 }
  - { offsetInCU: 0x38A31, offset: 0x38A31, size: 0x8, addend: 0x0, symName: __ZNSt3__114__split_bufferIN2cv3MatERNS_9allocatorIS2_EEED2Ev, symObjAddr: 0x12998, symBinAddr: 0x100015290, symSize: 0x8C }
  - { offsetInCU: 0x38A5D, offset: 0x38A5D, size: 0x8, addend: 0x0, symName: __ZNSt3__114__split_bufferIN2cv3MatERNS_9allocatorIS2_EEE5clearB8ue170006Ev, symObjAddr: 0x12A24, symBinAddr: 0x10001531C, symSize: 0x28 }
  - { offsetInCU: 0x38A83, offset: 0x38A83, size: 0x8, addend: 0x0, symName: __ZNKSt3__114__split_bufferIN2cv3MatERNS_9allocatorIS2_EEE8capacityB8ue170006Ev, symObjAddr: 0x12A4C, symBinAddr: 0x100015344, symSize: 0x40 }
  - { offsetInCU: 0x38AA9, offset: 0x38AA9, size: 0x8, addend: 0x0, symName: __ZNSt3__114__split_bufferIN2cv3MatERNS_9allocatorIS2_EEE17__destruct_at_endB8ue170006EPS2_, symObjAddr: 0x12A8C, symBinAddr: 0x100015384, symSize: 0x2C }
  - { offsetInCU: 0x38ADD, offset: 0x38ADD, size: 0x8, addend: 0x0, symName: __ZNSt3__114__split_bufferIN2cv3MatERNS_9allocatorIS2_EEE17__destruct_at_endB8ue170006EPS2_NS_17integral_constantIbLb0EEE, symObjAddr: 0x12AB8, symBinAddr: 0x1000153B0, symSize: 0x80 }
  - { offsetInCU: 0x38B1E, offset: 0x38B1E, size: 0x8, addend: 0x0, symName: __ZNKSt3__114__split_bufferIN2cv3MatERNS_9allocatorIS2_EEE9__end_capB8ue170006Ev, symObjAddr: 0x12B38, symBinAddr: 0x100015430, symSize: 0x28 }
  - { offsetInCU: 0x38B44, offset: 0x38B44, size: 0x8, addend: 0x0, symName: __ZNKSt3__117__compressed_pairIPN2cv3MatERNS_9allocatorIS2_EEE5firstB8ue170006Ev, symObjAddr: 0x12B60, symBinAddr: 0x100015458, symSize: 0x24 }
  - { offsetInCU: 0x38B6A, offset: 0x38B6A, size: 0x8, addend: 0x0, symName: __ZNSt3__16vectorIN2cv7Point3_IfEENS_9allocatorIS3_EEE9__end_capB8ue170006Ev, symObjAddr: 0x12B84, symBinAddr: 0x10001547C, symSize: 0x28 }
  - { offsetInCU: 0x38B90, offset: 0x38B90, size: 0x8, addend: 0x0, symName: __ZNSt3__16vectorIN2cv7Point3_IfEENS_9allocatorIS3_EEE22__construct_one_at_endB8ue170006IJRKS3_EEEvDpOT_, symObjAddr: 0x12BAC, symBinAddr: 0x1000154A4, symSize: 0x90 }
  - { offsetInCU: 0x38BDF, offset: 0x38BDF, size: 0x8, addend: 0x0, symName: __ZNSt3__16vectorIN2cv7Point3_IfEENS_9allocatorIS3_EEE21__push_back_slow_pathIRKS3_EEvOT_, symObjAddr: 0x12C3C, symBinAddr: 0x100015534, symSize: 0xD8 }
  - { offsetInCU: 0x38C3D, offset: 0x38C3D, size: 0x8, addend: 0x0, symName: __ZNSt3__117__compressed_pairIPN2cv7Point3_IfEENS_9allocatorIS3_EEE5firstB8ue170006Ev, symObjAddr: 0x12D14, symBinAddr: 0x10001560C, symSize: 0x24 }
  - { offsetInCU: 0x38C63, offset: 0x38C63, size: 0x8, addend: 0x0, symName: __ZNSt3__122__compressed_pair_elemIPN2cv7Point3_IfEELi0ELb0EE5__getB8ue170006Ev, symObjAddr: 0x12D38, symBinAddr: 0x100015630, symSize: 0x14 }
  - { offsetInCU: 0x38CA2, offset: 0x38CA2, size: 0x8, addend: 0x0, symName: __ZNSt3__16vectorIN2cv7Point3_IfEENS_9allocatorIS3_EEE21_ConstructTransactionC1B8ue170006ERS6_m, symObjAddr: 0x12D4C, symBinAddr: 0x100015644, symSize: 0x3C }
  - { offsetInCU: 0x38CEA, offset: 0x38CEA, size: 0x8, addend: 0x0, symName: __ZNSt3__116allocator_traitsINS_9allocatorIN2cv7Point3_IfEEEEE9constructB8ue170006IS4_JRKS4_EvEEvRS5_PT_DpOT0_, symObjAddr: 0x12D88, symBinAddr: 0x100015680, symSize: 0x34 }
  - { offsetInCU: 0x38D41, offset: 0x38D41, size: 0x8, addend: 0x0, symName: __ZNSt3__16vectorIN2cv7Point3_IfEENS_9allocatorIS3_EEE21_ConstructTransactionD1B8ue170006Ev, symObjAddr: 0x12DBC, symBinAddr: 0x1000156B4, symSize: 0x2C }
  - { offsetInCU: 0x38D6B, offset: 0x38D6B, size: 0x8, addend: 0x0, symName: __ZNSt3__16vectorIN2cv7Point3_IfEENS_9allocatorIS3_EEE21_ConstructTransactionC2B8ue170006ERS6_m, symObjAddr: 0x12DE8, symBinAddr: 0x1000156E0, symSize: 0x4C }
  - { offsetInCU: 0x38DB3, offset: 0x38DB3, size: 0x8, addend: 0x0, symName: __ZNSt3__19allocatorIN2cv7Point3_IfEEE9constructB8ue170006IS3_JRKS3_EEEvPT_DpOT0_, symObjAddr: 0x12E34, symBinAddr: 0x10001572C, symSize: 0x30 }
  - { offsetInCU: 0x38E09, offset: 0x38E09, size: 0x8, addend: 0x0, symName: __ZNSt3__16vectorIN2cv7Point3_IfEENS_9allocatorIS3_EEE21_ConstructTransactionD2B8ue170006Ev, symObjAddr: 0x12E64, symBinAddr: 0x10001575C, symSize: 0x20 }
  - { offsetInCU: 0x38E33, offset: 0x38E33, size: 0x8, addend: 0x0, symName: __ZNKSt3__16vectorIN2cv7Point3_IfEENS_9allocatorIS3_EEE11__recommendB8ue170006Em, symObjAddr: 0x12E84, symBinAddr: 0x10001577C, symSize: 0xB4 }
  - { offsetInCU: 0x38E88, offset: 0x38E88, size: 0x8, addend: 0x0, symName: __ZNSt3__114__split_bufferIN2cv7Point3_IfEERNS_9allocatorIS3_EEEC1EmmS6_, symObjAddr: 0x12F38, symBinAddr: 0x100015830, symSize: 0x44 }
  - { offsetInCU: 0x38EDE, offset: 0x38EDE, size: 0x8, addend: 0x0, symName: __ZNSt3__114__split_bufferIN2cv7Point3_IfEERNS_9allocatorIS3_EEED1Ev, symObjAddr: 0x1308C, symBinAddr: 0x100015984, symSize: 0x2C }
  - { offsetInCU: 0x38F0A, offset: 0x38F0A, size: 0x8, addend: 0x0, symName: __ZNKSt3__16vectorIN2cv7Point3_IfEENS_9allocatorIS3_EEE8max_sizeEv, symObjAddr: 0x130B8, symBinAddr: 0x1000159B0, symSize: 0x60 }
  - { offsetInCU: 0x38F32, offset: 0x38F32, size: 0x8, addend: 0x0, symName: __ZNKSt3__16vectorIN2cv7Point3_IfEENS_9allocatorIS3_EEE20__throw_length_errorB8ue170006Ev, symObjAddr: 0x13118, symBinAddr: 0x100015A10, symSize: 0x1C }
  - { offsetInCU: 0x38F62, offset: 0x38F62, size: 0x8, addend: 0x0, symName: __ZNSt3__116allocator_traitsINS_9allocatorIN2cv7Point3_IfEEEEE8max_sizeB8ue170006IS5_vEEmRKS5_, symObjAddr: 0x13134, symBinAddr: 0x100015A2C, symSize: 0x24 }
  - { offsetInCU: 0x38F90, offset: 0x38F90, size: 0x8, addend: 0x0, symName: __ZNKSt3__16vectorIN2cv7Point3_IfEENS_9allocatorIS3_EEE7__allocB8ue170006Ev, symObjAddr: 0x13158, symBinAddr: 0x100015A50, symSize: 0x28 }
  - { offsetInCU: 0x38FB6, offset: 0x38FB6, size: 0x8, addend: 0x0, symName: __ZNKSt3__19allocatorIN2cv7Point3_IfEEE8max_sizeB8ue170006Ev, symObjAddr: 0x13180, symBinAddr: 0x100015A78, symSize: 0x18 }
  - { offsetInCU: 0x38FDC, offset: 0x38FDC, size: 0x8, addend: 0x0, symName: __ZNKSt3__117__compressed_pairIPN2cv7Point3_IfEENS_9allocatorIS3_EEE6secondB8ue170006Ev, symObjAddr: 0x13198, symBinAddr: 0x100015A90, symSize: 0x24 }
  - { offsetInCU: 0x39002, offset: 0x39002, size: 0x8, addend: 0x0, symName: __ZNKSt3__122__compressed_pair_elemINS_9allocatorIN2cv7Point3_IfEEEELi1ELb1EE5__getB8ue170006Ev, symObjAddr: 0x131BC, symBinAddr: 0x100015AB4, symSize: 0x14 }
  - { offsetInCU: 0x39028, offset: 0x39028, size: 0x8, addend: 0x0, symName: __ZNSt3__114__split_bufferIN2cv7Point3_IfEERNS_9allocatorIS3_EEEC2EmmS6_, symObjAddr: 0x131D0, symBinAddr: 0x100015AC8, symSize: 0xE0 }
  - { offsetInCU: 0x3909C, offset: 0x3909C, size: 0x8, addend: 0x0, symName: __ZNSt3__117__compressed_pairIPN2cv7Point3_IfEERNS_9allocatorIS3_EEEC1B8ue170006IDnS7_EEOT_OT0_, symObjAddr: 0x132B0, symBinAddr: 0x100015BA8, symSize: 0x3C }
  - { offsetInCU: 0x390F4, offset: 0x390F4, size: 0x8, addend: 0x0, symName: __ZNSt3__114__split_bufferIN2cv7Point3_IfEERNS_9allocatorIS3_EEE7__allocB8ue170006Ev, symObjAddr: 0x1332C, symBinAddr: 0x100015C24, symSize: 0x28 }
  - { offsetInCU: 0x3911A, offset: 0x3911A, size: 0x8, addend: 0x0, symName: __ZNSt3__114__split_bufferIN2cv7Point3_IfEERNS_9allocatorIS3_EEE9__end_capB8ue170006Ev, symObjAddr: 0x13354, symBinAddr: 0x100015C4C, symSize: 0x28 }
  - { offsetInCU: 0x39140, offset: 0x39140, size: 0x8, addend: 0x0, symName: __ZNSt3__117__compressed_pairIPN2cv7Point3_IfEERNS_9allocatorIS3_EEEC2B8ue170006IDnS7_EEOT_OT0_, symObjAddr: 0x1337C, symBinAddr: 0x100015C74, symSize: 0x48 }
  - { offsetInCU: 0x39198, offset: 0x39198, size: 0x8, addend: 0x0, symName: __ZNSt3__122__compressed_pair_elemIRNS_9allocatorIN2cv7Point3_IfEEEELi1ELb0EEC2B8ue170006IS6_vEEOT_, symObjAddr: 0x133C4, symBinAddr: 0x100015CBC, symSize: 0x20 }
  - { offsetInCU: 0x391DA, offset: 0x391DA, size: 0x8, addend: 0x0, symName: __ZNSt3__19allocatorIN2cv7Point3_IfEEE8allocateB8ue170006Em, symObjAddr: 0x133E4, symBinAddr: 0x100015CDC, symSize: 0x5C }
  - { offsetInCU: 0x3920E, offset: 0x3920E, size: 0x8, addend: 0x0, symName: __ZNSt3__117__compressed_pairIPN2cv7Point3_IfEERNS_9allocatorIS3_EEE6secondB8ue170006Ev, symObjAddr: 0x13440, symBinAddr: 0x100015D38, symSize: 0x28 }
  - { offsetInCU: 0x39234, offset: 0x39234, size: 0x8, addend: 0x0, symName: __ZNSt3__122__compressed_pair_elemIRNS_9allocatorIN2cv7Point3_IfEEEELi1ELb0EE5__getB8ue170006Ev, symObjAddr: 0x13468, symBinAddr: 0x100015D60, symSize: 0x18 }
  - { offsetInCU: 0x3925A, offset: 0x3925A, size: 0x8, addend: 0x0, symName: __ZNSt3__117__compressed_pairIPN2cv7Point3_IfEERNS_9allocatorIS3_EEE5firstB8ue170006Ev, symObjAddr: 0x13480, symBinAddr: 0x100015D78, symSize: 0x24 }
  - { offsetInCU: 0x39280, offset: 0x39280, size: 0x8, addend: 0x0, symName: __ZNSt3__116reverse_iteratorIPN2cv7Point3_IfEEEC1B8ue170006ES4_, symObjAddr: 0x1351C, symBinAddr: 0x100015E14, symSize: 0x34 }
  - { offsetInCU: 0x392B8, offset: 0x392B8, size: 0x8, addend: 0x0, symName: __ZNKSt3__116reverse_iteratorIPN2cv7Point3_IfEEE4baseB8ue170006Ev, symObjAddr: 0x13550, symBinAddr: 0x100015E48, symSize: 0x18 }
  - { offsetInCU: 0x392DE, offset: 0x392DE, size: 0x8, addend: 0x0, symName: __ZNKSt3__16vectorIN2cv7Point3_IfEENS_9allocatorIS3_EEE14__annotate_newB8ue170006Em, symObjAddr: 0x135A4, symBinAddr: 0x100015E9C, symSize: 0xC8 }
  - { offsetInCU: 0x3932C, offset: 0x3932C, size: 0x8, addend: 0x0, symName: __ZNKSt3__111__move_loopINS_17_ClassicAlgPolicyEEclB8ue170006INS_16reverse_iteratorIPN2cv7Point3_IfEEEES9_S9_EENS_4pairIT_T1_EESB_T0_SC_, symObjAddr: 0x1395C, symBinAddr: 0x100016254, symSize: 0xA8 }
  - { offsetInCU: 0x39397, offset: 0x39397, size: 0x8, addend: 0x0, symName: __ZNSt3__18_IterOpsINS_17_ClassicAlgPolicyEE11__iter_moveB8ue170006IRNS_16reverse_iteratorIPN2cv7Point3_IfEEEEEENS_9enable_ifIXsr12is_referenceIDTdeclsr3stdE7declvalIRT_EEEEE5valueEDTclsr3stdE4movedeclsr3stdE7declvalISD_EEEEE4typeEOSC_, symObjAddr: 0x13B98, symBinAddr: 0x100016490, symSize: 0x28 }
  - { offsetInCU: 0x393C3, offset: 0x393C3, size: 0x8, addend: 0x0, symName: __ZNKSt3__116reverse_iteratorIPN2cv7Point3_IfEEEdeB8ue170006Ev, symObjAddr: 0x13BC0, symBinAddr: 0x1000164B8, symSize: 0x28 }
  - { offsetInCU: 0x393F7, offset: 0x393F7, size: 0x8, addend: 0x0, symName: __ZNSt3__116reverse_iteratorIPN2cv7Point3_IfEEEppB8ue170006Ev, symObjAddr: 0x13BE8, symBinAddr: 0x1000164E0, symSize: 0x20 }
  - { offsetInCU: 0x3941D, offset: 0x3941D, size: 0x8, addend: 0x0, symName: __ZNSt3__18_IterOpsINS_17_ClassicAlgPolicyEE25__validate_iter_referenceB8ue170006IRNS_16reverse_iteratorIPN2cv7Point3_IfEEEEEEvv, symObjAddr: 0x13C08, symBinAddr: 0x100016500, symSize: 0x4 }
  - { offsetInCU: 0x3943B, offset: 0x3943B, size: 0x8, addend: 0x0, symName: __ZNSt3__118__unwrap_iter_implINS_16reverse_iteratorIPN2cv7Point3_IfEEEELb0EE8__unwrapB8ue170006ES6_, symObjAddr: 0x13C0C, symBinAddr: 0x100016504, symSize: 0x24 }
  - { offsetInCU: 0x39463, offset: 0x39463, size: 0x8, addend: 0x0, symName: __ZNSt3__14pairINS_16reverse_iteratorIPN2cv7Point3_IfEEEES6_EC1B8ue170006IS6_S6_LPv0EEEOT_OT0_, symObjAddr: 0x13C30, symBinAddr: 0x100016528, symSize: 0x3C }
  - { offsetInCU: 0x394C1, offset: 0x394C1, size: 0x8, addend: 0x0, symName: __ZNSt3__14pairINS_16reverse_iteratorIPN2cv7Point3_IfEEEES6_EC2B8ue170006IS6_S6_LPv0EEEOT_OT0_, symObjAddr: 0x13C6C, symBinAddr: 0x100016564, symSize: 0x34 }
  - { offsetInCU: 0x3951F, offset: 0x3951F, size: 0x8, addend: 0x0, symName: __ZNSt3__118__unwrap_iter_implINS_16reverse_iteratorIPN2cv7Point3_IfEEEELb0EE8__rewrapB8ue170006ES6_S6_, symObjAddr: 0x13CA0, symBinAddr: 0x100016598, symSize: 0x2C }
  - { offsetInCU: 0x3954D, offset: 0x3954D, size: 0x8, addend: 0x0, symName: __ZNSt3__116reverse_iteratorIPN2cv7Point3_IfEEEC2B8ue170006ES4_, symObjAddr: 0x13CCC, symBinAddr: 0x1000165C4, symSize: 0x28 }
  - { offsetInCU: 0x39585, offset: 0x39585, size: 0x8, addend: 0x0, symName: __ZNSt3__114__split_bufferIN2cv7Point3_IfEERNS_9allocatorIS3_EEED2Ev, symObjAddr: 0x13CF4, symBinAddr: 0x1000165EC, symSize: 0x8C }
  - { offsetInCU: 0x395B1, offset: 0x395B1, size: 0x8, addend: 0x0, symName: __ZNSt3__114__split_bufferIN2cv7Point3_IfEERNS_9allocatorIS3_EEE5clearB8ue170006Ev, symObjAddr: 0x13D80, symBinAddr: 0x100016678, symSize: 0x28 }
  - { offsetInCU: 0x395D7, offset: 0x395D7, size: 0x8, addend: 0x0, symName: __ZNKSt3__114__split_bufferIN2cv7Point3_IfEERNS_9allocatorIS3_EEE8capacityB8ue170006Ev, symObjAddr: 0x13DA8, symBinAddr: 0x1000166A0, symSize: 0x40 }
  - { offsetInCU: 0x395FD, offset: 0x395FD, size: 0x8, addend: 0x0, symName: __ZNSt3__114__split_bufferIN2cv7Point3_IfEERNS_9allocatorIS3_EEE17__destruct_at_endB8ue170006EPS3_, symObjAddr: 0x13DE8, symBinAddr: 0x1000166E0, symSize: 0x2C }
  - { offsetInCU: 0x39631, offset: 0x39631, size: 0x8, addend: 0x0, symName: __ZNSt3__114__split_bufferIN2cv7Point3_IfEERNS_9allocatorIS3_EEE17__destruct_at_endB8ue170006EPS3_NS_17integral_constantIbLb0EEE, symObjAddr: 0x13E14, symBinAddr: 0x10001670C, symSize: 0x80 }
  - { offsetInCU: 0x39672, offset: 0x39672, size: 0x8, addend: 0x0, symName: __ZNKSt3__114__split_bufferIN2cv7Point3_IfEERNS_9allocatorIS3_EEE9__end_capB8ue170006Ev, symObjAddr: 0x13E94, symBinAddr: 0x10001678C, symSize: 0x28 }
  - { offsetInCU: 0x39698, offset: 0x39698, size: 0x8, addend: 0x0, symName: __ZNKSt3__117__compressed_pairIPN2cv7Point3_IfEERNS_9allocatorIS3_EEE5firstB8ue170006Ev, symObjAddr: 0x13EBC, symBinAddr: 0x1000167B4, symSize: 0x24 }
  - { offsetInCU: 0x3F, offset: 0x39B4A, size: 0x8, addend: 0x0, symName: _count, symObjAddr: 0x6C7E8, symBinAddr: 0x100028000, symSize: 0x0 }
  - { offsetInCU: 0x5C, offset: 0x39B67, size: 0x8, addend: 0x0, symName: _col_size, symObjAddr: 0x6C7EC, symBinAddr: 0x100028004, symSize: 0x0 }
  - { offsetInCU: 0x72, offset: 0x39B7D, size: 0x8, addend: 0x0, symName: _mouse_clicked, symObjAddr: 0x6C7F0, symBinAddr: 0x100028008, symSize: 0x0 }
  - { offsetInCU: 0xA54D, offset: 0x44058, size: 0x8, addend: 0x0, symName: __ZNSt3__17getlineB8ue170006IcNS_11char_traitsIcEENS_9allocatorIcEEEERNS_13basic_istreamIT_T0_EES9_RNS_12basic_stringIS6_S7_T1_EE, symObjAddr: 0x132C, symBinAddr: 0x100017778, symSize: 0x5C }
  - { offsetInCU: 0xA937, offset: 0x44442, size: 0x8, addend: 0x0, symName: __ZNSt3__119__allocate_at_leastB8ue170006INS_9allocatorI14CorrespondenceEEEENS_19__allocation_resultINS_16allocator_traitsIT_E7pointerEEERS6_m, symObjAddr: 0x3374, symBinAddr: 0x1000184C0, symSize: 0x40 }
  - { offsetInCU: 0xA97A, offset: 0x44485, size: 0x8, addend: 0x0, symName: __ZNSt3__142__uninitialized_allocator_move_if_noexceptB8ue170006INS_9allocatorI14CorrespondenceEENS_16reverse_iteratorIPS2_EES6_S2_vEET1_RT_T0_SA_S7_, symObjAddr: 0x367C, symBinAddr: 0x100018674, symSize: 0x78 }
  - { offsetInCU: 0xA9F7, offset: 0x44502, size: 0x8, addend: 0x0, symName: __ZNSt3__14swapB8ue170006IP14CorrespondenceEENS_9enable_ifIXaasr21is_move_constructibleIT_EE5valuesr18is_move_assignableIS4_EE5valueEvE4typeERS4_S7_, symObjAddr: 0x3740, symBinAddr: 0x100018738, symSize: 0x3C }
  - { offsetInCU: 0xAA48, offset: 0x44553, size: 0x8, addend: 0x0, symName: __ZNSt3__14moveB8ue170006INS_16reverse_iteratorIP14CorrespondenceEES4_EET0_T_S6_S5_, symObjAddr: 0x3870, symBinAddr: 0x100018820, symSize: 0x78 }
  - { offsetInCU: 0xAAA2, offset: 0x445AD, size: 0x8, addend: 0x0, symName: __ZNSt3__16__moveB8ue170006INS_17_ClassicAlgPolicyENS_16reverse_iteratorIP14CorrespondenceEES5_S5_EENS_4pairIT0_T2_EES7_T1_S8_, symObjAddr: 0x38E8, symBinAddr: 0x100018898, symSize: 0x64 }
  - { offsetInCU: 0xAB0E, offset: 0x44619, size: 0x8, addend: 0x0, symName: __ZNSt3__123__dispatch_copy_or_moveB8ue170006INS_17_ClassicAlgPolicyENS_11__move_loopIS1_EENS_14__move_trivialENS_16reverse_iteratorIP14CorrespondenceEES8_S8_EENS_4pairIT2_T4_EESA_T3_SB_, symObjAddr: 0x394C, symBinAddr: 0x1000188FC, symSize: 0x64 }
  - { offsetInCU: 0xAB8C, offset: 0x44697, size: 0x8, addend: 0x0, symName: __ZNSt3__121__unwrap_and_dispatchB8ue170006INS_10__overloadINS_11__move_loopINS_17_ClassicAlgPolicyEEENS_14__move_trivialEEENS_16reverse_iteratorIP14CorrespondenceEESA_SA_Li0EEENS_4pairIT0_T2_EESC_T1_SD_, symObjAddr: 0x39B0, symBinAddr: 0x100018960, symSize: 0x12C }
  - { offsetInCU: 0xAC1C, offset: 0x44727, size: 0x8, addend: 0x0, symName: __ZNSt3__114__unwrap_rangeB8ue170006INS_16reverse_iteratorIP14CorrespondenceEES4_EENS_4pairIT0_S6_EET_S8_, symObjAddr: 0x3ADC, symBinAddr: 0x100018A8C, symSize: 0x84 }
  - { offsetInCU: 0xAD8E, offset: 0x44899, size: 0x8, addend: 0x0, symName: __ZNSt3__113__unwrap_iterB8ue170006INS_16reverse_iteratorIP14CorrespondenceEENS_18__unwrap_iter_implIS4_Lb0EEELi0EEEDTclsrT0_8__unwrapclsr3stdE7declvalIT_EEEES8_, symObjAddr: 0x3C08, symBinAddr: 0x100018BB8, symSize: 0x44 }
  - { offsetInCU: 0xADD2, offset: 0x448DD, size: 0x8, addend: 0x0, symName: __ZNSt3__19make_pairB8ue170006INS_16reverse_iteratorIP14CorrespondenceEES4_EENS_4pairINS_18__unwrap_ref_decayIT_E4typeENS6_IT0_E4typeEEEOS7_OSA_, symObjAddr: 0x3C4C, symBinAddr: 0x100018BFC, symSize: 0x38 }
  - { offsetInCU: 0xAE21, offset: 0x4492C, size: 0x8, addend: 0x0, symName: __ZNSt3__114__rewrap_rangeB8ue170006INS_16reverse_iteratorIP14CorrespondenceEES4_EET_S5_T0_, symObjAddr: 0x3C84, symBinAddr: 0x100018C34, symSize: 0x5C }
  - { offsetInCU: 0xAE6D, offset: 0x44978, size: 0x8, addend: 0x0, symName: __ZNSt3__113__rewrap_iterB8ue170006INS_16reverse_iteratorIP14CorrespondenceEES4_NS_18__unwrap_iter_implIS4_Lb0EEEEET_S7_T0_, symObjAddr: 0x3CE0, symBinAddr: 0x100018C90, symSize: 0x74 }
  - { offsetInCU: 0xAEC2, offset: 0x449CD, size: 0x8, addend: 0x0, symName: __ZNSt3__1neB8ue170006IP14CorrespondenceS2_EEbRKNS_16reverse_iteratorIT_EERKNS3_IT0_EE, symObjAddr: 0x3D54, symBinAddr: 0x100018D04, symSize: 0x48 }
  - { offsetInCU: 0xAFC0, offset: 0x44ACB, size: 0x8, addend: 0x0, symName: __ZNSt3__17getlineB8ue170006IcNS_11char_traitsIcEENS_9allocatorIcEEEERNS_13basic_istreamIT_T0_EES9_RNS_12basic_stringIS6_S7_T1_EES6_, symObjAddr: 0x46A4, symBinAddr: 0x1000192E0, symSize: 0x238 }
  - { offsetInCU: 0xBE71, offset: 0x4597C, size: 0x8, addend: 0x0, symName: __ZN2cvlsIdEERNSt3__113basic_ostreamIcNS1_11char_traitsIcEEEES6_RKNS_6Point_IT_EE, symObjAddr: 0x9C0, symBinAddr: 0x100016F9C, symSize: 0x64 }
  - { offsetInCU: 0xC03B, offset: 0x45B46, size: 0x8, addend: 0x0, symName: __ZN2cvL13saturate_castIiEET_d, symObjAddr: 0x4380, symBinAddr: 0x10001917C, symSize: 0x24 }
  - { offsetInCU: 0xC071, offset: 0x45B7C, size: 0x8, addend: 0x0, symName: __ZN2cvL13saturate_castIdEET_i, symObjAddr: 0x4FE4, symBinAddr: 0x100019C20, symSize: 0x20 }
  - { offsetInCU: 0xC59E, offset: 0x460A9, size: 0x8, addend: 0x0, symName: __ZNSt3__16vectorI14CorrespondenceNS_9allocatorIS1_EEE26__swap_out_circular_bufferERNS_14__split_bufferIS1_RS3_EE, symObjAddr: 0x2D40, symBinAddr: 0x100018160, symSize: 0x110 }
  - { offsetInCU: 0xE6FF, offset: 0x4820A, size: 0x8, addend: 0x0, symName: __ZN17GetCorrespondence7onMouseEiiiiPv, symObjAddr: 0x0, symBinAddr: 0x1000167D8, symSize: 0x1AC }
  - { offsetInCU: 0xE779, offset: 0x48284, size: 0x8, addend: 0x0, symName: __ZN17GetCorrespondence17getCorrespondenceERNSt3__16vectorI14CorrespondenceNS0_9allocatorIS2_EEEE, symObjAddr: 0x2B4, symBinAddr: 0x100016984, symSize: 0x55C }
  - { offsetInCU: 0xE85E, offset: 0x48369, size: 0x8, addend: 0x0, symName: __ZN14CorrespondenceC1Ev, symObjAddr: 0x844, symBinAddr: 0x100016EE0, symSize: 0x2C }
  - { offsetInCU: 0xE88A, offset: 0x48395, size: 0x8, addend: 0x0, symName: __ZN2cv7MatSizeixEi, symObjAddr: 0x930, symBinAddr: 0x100016F0C, symSize: 0x24 }
  - { offsetInCU: 0xE8C2, offset: 0x483CD, size: 0x8, addend: 0x0, symName: __ZNSt3__16vectorI14CorrespondenceNS_9allocatorIS1_EEE9push_backB8ue170006ERKS1_, symObjAddr: 0x954, symBinAddr: 0x100016F30, symSize: 0x6C }
  - { offsetInCU: 0xE8F9, offset: 0x48404, size: 0x8, addend: 0x0, symName: __ZNSt3__16vectorI14CorrespondenceNS_9allocatorIS1_EEE4backB8ue170006Ev, symObjAddr: 0xA24, symBinAddr: 0x100017000, symSize: 0x1C }
  - { offsetInCU: 0xE91F, offset: 0x4842A, size: 0x8, addend: 0x0, symName: __ZN2cv6Point_IiEC1Eii, symObjAddr: 0xAEC, symBinAddr: 0x10001701C, symSize: 0x3C }
  - { offsetInCU: 0xE96C, offset: 0x48477, size: 0x8, addend: 0x0, symName: __ZN2cv17_InputOutputArrayC1ERNS_3MatE, symObjAddr: 0xB28, symBinAddr: 0x100017058, symSize: 0x34 }
  - { offsetInCU: 0xE9A8, offset: 0x484B3, size: 0x8, addend: 0x0, symName: __ZNK2cv6Point_IdEcvNS0_IT_EEIiEEv, symObjAddr: 0xB5C, symBinAddr: 0x10001708C, symSize: 0x50 }
  - { offsetInCU: 0xE9D9, offset: 0x484E4, size: 0x8, addend: 0x0, symName: __ZN2cv7Scalar_IdEC1Edddd, symObjAddr: 0xBAC, symBinAddr: 0x1000170DC, symSize: 0x4C }
  - { offsetInCU: 0xEA41, offset: 0x4854C, size: 0x8, addend: 0x0, symName: __ZN2cv17_InputOutputArrayD1Ev, symObjAddr: 0xBF8, symBinAddr: 0x100017128, symSize: 0x2C }
  - { offsetInCU: 0xEA6E, offset: 0x48579, size: 0x8, addend: 0x0, symName: __ZN17GetCorrespondence15writeCorrToFileERNSt3__16vectorI14CorrespondenceNS0_9allocatorIS2_EEEE, symObjAddr: 0xC44, symBinAddr: 0x100017154, symSize: 0x1C4 }
  - { offsetInCU: 0xEB63, offset: 0x4866E, size: 0x8, addend: 0x0, symName: __ZNSt3__114basic_ofstreamIcNS_11char_traitsIcEEEC1Ev, symObjAddr: 0xE08, symBinAddr: 0x100017318, symSize: 0xE8 }
  - { offsetInCU: 0xEB94, offset: 0x4869F, size: 0x8, addend: 0x0, symName: __ZN17GetCorrespondence16readCorrFromFileERNSt3__16vectorI14CorrespondenceNS0_9allocatorIS2_EEEE, symObjAddr: 0xF88, symBinAddr: 0x100017400, symSize: 0x24C }
  - { offsetInCU: 0xECE2, offset: 0x487ED, size: 0x8, addend: 0x0, symName: __ZNSt3__114basic_ifstreamIcNS_11char_traitsIcEEEC1Ev, symObjAddr: 0x11D4, symBinAddr: 0x10001764C, symSize: 0xE8 }
  - { offsetInCU: 0xED0E, offset: 0x48819, size: 0x8, addend: 0x0, symName: __ZNSt3__16vectorI14CorrespondenceNS_9allocatorIS1_EEE5clearB8ue170006Ev, symObjAddr: 0x12BC, symBinAddr: 0x100017734, symSize: 0x44 }
  - { offsetInCU: 0xED43, offset: 0x4884E, size: 0x8, addend: 0x0, symName: __ZNKSt3__19basic_iosIcNS_11char_traitsIcEEEcvbB8ue170006Ev, symObjAddr: 0x1388, symBinAddr: 0x1000177D4, symSize: 0x2C }
  - { offsetInCU: 0xED69, offset: 0x48874, size: 0x8, addend: 0x0, symName: __ZNKSt3__112basic_stringIcNS_11char_traitsIcEENS_9allocatorIcEEE5emptyB8ue170006Ev, symObjAddr: 0x13B4, symBinAddr: 0x100017800, symSize: 0x30 }
  - { offsetInCU: 0xEDDF, offset: 0x488EA, size: 0x8, addend: 0x0, symName: __ZNSt3__119basic_istringstreamIcNS_11char_traitsIcEENS_9allocatorIcEEEC1B8ue170006ERKNS_12basic_stringIcS2_S4_EEj, symObjAddr: 0x13E4, symBinAddr: 0x100017830, symSize: 0xFC }
  - { offsetInCU: 0xEE27, offset: 0x48932, size: 0x8, addend: 0x0, symName: __ZNK2cv6Point_IiEcvNS0_IT_EEIdEEv, symObjAddr: 0x14E0, symBinAddr: 0x10001792C, symSize: 0x54 }
  - { offsetInCU: 0xEE5D, offset: 0x48968, size: 0x8, addend: 0x0, symName: __ZNSt3__119basic_istringstreamIcNS_11char_traitsIcEENS_9allocatorIcEEED1Ev, symObjAddr: 0x1534, symBinAddr: 0x100017980, symSize: 0x40 }
  - { offsetInCU: 0xEE8F, offset: 0x4899A, size: 0x8, addend: 0x0, symName: __ZNSt3__114basic_ifstreamIcNS_11char_traitsIcEEED1Ev, symObjAddr: 0x1574, symBinAddr: 0x1000179C0, symSize: 0x40 }
  - { offsetInCU: 0xEEBC, offset: 0x489C7, size: 0x8, addend: 0x0, symName: __ZN17GetCorrespondenceC2EN2cv3MatES1_, symObjAddr: 0x15B4, symBinAddr: 0x100017A00, symSize: 0x9C }
  - { offsetInCU: 0xEF06, offset: 0x48A11, size: 0x8, addend: 0x0, symName: __ZN17GetCorrespondenceC1EN2cv3MatES1_, symObjAddr: 0x1650, symBinAddr: 0x100017A9C, symSize: 0x3C }
  - { offsetInCU: 0xEF50, offset: 0x48A5B, size: 0x8, addend: 0x0, symName: __ZN14CorrespondenceC2Ev, symObjAddr: 0x168C, symBinAddr: 0x100017AD8, symSize: 0x38 }
  - { offsetInCU: 0xEF7C, offset: 0x48A87, size: 0x8, addend: 0x0, symName: __ZN2cv17_InputOutputArrayC2ERNS_3MatE, symObjAddr: 0x18E8, symBinAddr: 0x100017B10, symSize: 0x40 }
  - { offsetInCU: 0xEFB8, offset: 0x48AC3, size: 0x8, addend: 0x0, symName: __ZN2cv12_OutputArrayC2Ev, symObjAddr: 0x1928, symBinAddr: 0x100017B50, symSize: 0x3C }
  - { offsetInCU: 0xEFE4, offset: 0x48AEF, size: 0x8, addend: 0x0, symName: __ZN2cv17_InputOutputArrayD2Ev, symObjAddr: 0x1964, symBinAddr: 0x100017B8C, symSize: 0x2C }
  - { offsetInCU: 0xF011, offset: 0x48B1C, size: 0x8, addend: 0x0, symName: __ZNSt3__119basic_istringstreamIcNS_11char_traitsIcEENS_9allocatorIcEEED2Ev, symObjAddr: 0x1A1C, symBinAddr: 0x100017BB8, symSize: 0x64 }
  - { offsetInCU: 0xF04B, offset: 0x48B56, size: 0x8, addend: 0x0, symName: __ZTv0_n24_NSt3__119basic_istringstreamIcNS_11char_traitsIcEENS_9allocatorIcEEED1Ev, symObjAddr: 0x1A80, symBinAddr: 0x100017C1C, symSize: 0x28 }
  - { offsetInCU: 0xF067, offset: 0x48B72, size: 0x8, addend: 0x0, symName: __ZNSt3__115basic_stringbufIcNS_11char_traitsIcEENS_9allocatorIcEEED1Ev, symObjAddr: 0x1AA8, symBinAddr: 0x100017C44, symSize: 0x2C }
  - { offsetInCU: 0xF094, offset: 0x48B9F, size: 0x8, addend: 0x0, symName: __ZNSt3__115basic_stringbufIcNS_11char_traitsIcEENS_9allocatorIcEEED2Ev, symObjAddr: 0x1AD4, symBinAddr: 0x100017C70, symSize: 0x48 }
  - { offsetInCU: 0xF0C1, offset: 0x48BCC, size: 0x8, addend: 0x0, symName: __ZNSt3__114basic_ifstreamIcNS_11char_traitsIcEEED2Ev, symObjAddr: 0x1B1C, symBinAddr: 0x100017CB8, symSize: 0x64 }
  - { offsetInCU: 0xF0FB, offset: 0x48C06, size: 0x8, addend: 0x0, symName: __ZTv0_n24_NSt3__114basic_ifstreamIcNS_11char_traitsIcEEED1Ev, symObjAddr: 0x1B80, symBinAddr: 0x100017D1C, symSize: 0x28 }
  - { offsetInCU: 0xF117, offset: 0x48C22, size: 0x8, addend: 0x0, symName: __ZN2cv6Point_IiEC2Eii, symObjAddr: 0x1D5C, symBinAddr: 0x100017D44, symSize: 0x2C }
  - { offsetInCU: 0xF17D, offset: 0x48C88, size: 0x8, addend: 0x0, symName: __ZNSt3__16vectorI14CorrespondenceNS_9allocatorIS1_EEE9__end_capB8ue170006Ev, symObjAddr: 0x28B4, symBinAddr: 0x100017D70, symSize: 0x28 }
  - { offsetInCU: 0xF1A3, offset: 0x48CAE, size: 0x8, addend: 0x0, symName: __ZNSt3__16vectorI14CorrespondenceNS_9allocatorIS1_EEE22__construct_one_at_endB8ue170006IJRKS1_EEEvDpOT_, symObjAddr: 0x28DC, symBinAddr: 0x100017D98, symSize: 0x90 }
  - { offsetInCU: 0xF1F2, offset: 0x48CFD, size: 0x8, addend: 0x0, symName: __ZNSt3__16vectorI14CorrespondenceNS_9allocatorIS1_EEE21__push_back_slow_pathIRKS1_EEvOT_, symObjAddr: 0x296C, symBinAddr: 0x100017E28, symSize: 0xD8 }
  - { offsetInCU: 0xF250, offset: 0x48D5B, size: 0x8, addend: 0x0, symName: __ZNSt3__117__compressed_pairIP14CorrespondenceNS_9allocatorIS1_EEE5firstB8ue170006Ev, symObjAddr: 0x2A44, symBinAddr: 0x100017F00, symSize: 0x24 }
  - { offsetInCU: 0xF276, offset: 0x48D81, size: 0x8, addend: 0x0, symName: __ZNSt3__122__compressed_pair_elemIP14CorrespondenceLi0ELb0EE5__getB8ue170006Ev, symObjAddr: 0x2A68, symBinAddr: 0x100017F24, symSize: 0x14 }
  - { offsetInCU: 0xF2B5, offset: 0x48DC0, size: 0x8, addend: 0x0, symName: __ZNSt3__16vectorI14CorrespondenceNS_9allocatorIS1_EEE21_ConstructTransactionC1B8ue170006ERS4_m, symObjAddr: 0x2A7C, symBinAddr: 0x100017F38, symSize: 0x3C }
  - { offsetInCU: 0xF2FD, offset: 0x48E08, size: 0x8, addend: 0x0, symName: __ZNSt3__116allocator_traitsINS_9allocatorI14CorrespondenceEEE9constructB8ue170006IS2_JRKS2_EvEEvRS3_PT_DpOT0_, symObjAddr: 0x2AB8, symBinAddr: 0x100017F74, symSize: 0x34 }
  - { offsetInCU: 0xF354, offset: 0x48E5F, size: 0x8, addend: 0x0, symName: __ZNSt3__16vectorI14CorrespondenceNS_9allocatorIS1_EEE21_ConstructTransactionD1B8ue170006Ev, symObjAddr: 0x2B28, symBinAddr: 0x100017FA8, symSize: 0x2C }
  - { offsetInCU: 0xF37E, offset: 0x48E89, size: 0x8, addend: 0x0, symName: __ZNSt3__16vectorI14CorrespondenceNS_9allocatorIS1_EEE21_ConstructTransactionC2B8ue170006ERS4_m, symObjAddr: 0x2B54, symBinAddr: 0x100017FD4, symSize: 0x44 }
  - { offsetInCU: 0xF3C6, offset: 0x48ED1, size: 0x8, addend: 0x0, symName: __ZNSt3__19allocatorI14CorrespondenceE9constructB8ue170006IS1_JRKS1_EEEvPT_DpOT0_, symObjAddr: 0x2B98, symBinAddr: 0x100018018, symSize: 0x30 }
  - { offsetInCU: 0xF41C, offset: 0x48F27, size: 0x8, addend: 0x0, symName: __ZNSt3__16vectorI14CorrespondenceNS_9allocatorIS1_EEE21_ConstructTransactionD2B8ue170006Ev, symObjAddr: 0x2C00, symBinAddr: 0x100018048, symSize: 0x20 }
  - { offsetInCU: 0xF446, offset: 0x48F51, size: 0x8, addend: 0x0, symName: __ZNKSt3__16vectorI14CorrespondenceNS_9allocatorIS1_EEE11__recommendB8ue170006Em, symObjAddr: 0x2C20, symBinAddr: 0x100018068, symSize: 0xB4 }
  - { offsetInCU: 0xF49B, offset: 0x48FA6, size: 0x8, addend: 0x0, symName: __ZNSt3__114__split_bufferI14CorrespondenceRNS_9allocatorIS1_EEEC1EmmS4_, symObjAddr: 0x2CFC, symBinAddr: 0x10001811C, symSize: 0x44 }
  - { offsetInCU: 0xF4F1, offset: 0x48FFC, size: 0x8, addend: 0x0, symName: __ZNSt3__114__split_bufferI14CorrespondenceRNS_9allocatorIS1_EEED1Ev, symObjAddr: 0x2E50, symBinAddr: 0x100018270, symSize: 0x2C }
  - { offsetInCU: 0xF51D, offset: 0x49028, size: 0x8, addend: 0x0, symName: __ZNKSt3__16vectorI14CorrespondenceNS_9allocatorIS1_EEE8max_sizeEv, symObjAddr: 0x2E7C, symBinAddr: 0x10001829C, symSize: 0x60 }
  - { offsetInCU: 0xF545, offset: 0x49050, size: 0x8, addend: 0x0, symName: __ZNKSt3__16vectorI14CorrespondenceNS_9allocatorIS1_EEE20__throw_length_errorB8ue170006Ev, symObjAddr: 0x2EDC, symBinAddr: 0x1000182FC, symSize: 0x1C }
  - { offsetInCU: 0xF575, offset: 0x49080, size: 0x8, addend: 0x0, symName: __ZNSt3__116allocator_traitsINS_9allocatorI14CorrespondenceEEE8max_sizeB8ue170006IS3_vEEmRKS3_, symObjAddr: 0x2F90, symBinAddr: 0x100018318, symSize: 0x24 }
  - { offsetInCU: 0xF5A3, offset: 0x490AE, size: 0x8, addend: 0x0, symName: __ZNKSt3__16vectorI14CorrespondenceNS_9allocatorIS1_EEE7__allocB8ue170006Ev, symObjAddr: 0x2FB4, symBinAddr: 0x10001833C, symSize: 0x28 }
  - { offsetInCU: 0xF5C9, offset: 0x490D4, size: 0x8, addend: 0x0, symName: __ZNKSt3__19allocatorI14CorrespondenceE8max_sizeB8ue170006Ev, symObjAddr: 0x3078, symBinAddr: 0x100018364, symSize: 0x14 }
  - { offsetInCU: 0xF5EF, offset: 0x490FA, size: 0x8, addend: 0x0, symName: __ZNKSt3__117__compressed_pairIP14CorrespondenceNS_9allocatorIS1_EEE6secondB8ue170006Ev, symObjAddr: 0x308C, symBinAddr: 0x100018378, symSize: 0x24 }
  - { offsetInCU: 0xF615, offset: 0x49120, size: 0x8, addend: 0x0, symName: __ZNKSt3__122__compressed_pair_elemINS_9allocatorI14CorrespondenceEELi1ELb1EE5__getB8ue170006Ev, symObjAddr: 0x30B0, symBinAddr: 0x10001839C, symSize: 0x14 }
  - { offsetInCU: 0xF63B, offset: 0x49146, size: 0x8, addend: 0x0, symName: __ZNSt3__114__split_bufferI14CorrespondenceRNS_9allocatorIS1_EEEC2EmmS4_, symObjAddr: 0x3264, symBinAddr: 0x1000183B0, symSize: 0xD4 }
  - { offsetInCU: 0xF6B4, offset: 0x491BF, size: 0x8, addend: 0x0, symName: __ZNSt3__117__compressed_pairIP14CorrespondenceRNS_9allocatorIS1_EEEC1B8ue170006IDnS5_EEOT_OT0_, symObjAddr: 0x3338, symBinAddr: 0x100018484, symSize: 0x3C }
  - { offsetInCU: 0xF70C, offset: 0x49217, size: 0x8, addend: 0x0, symName: __ZNSt3__114__split_bufferI14CorrespondenceRNS_9allocatorIS1_EEE7__allocB8ue170006Ev, symObjAddr: 0x33B4, symBinAddr: 0x100018500, symSize: 0x28 }
  - { offsetInCU: 0xF732, offset: 0x4923D, size: 0x8, addend: 0x0, symName: __ZNSt3__114__split_bufferI14CorrespondenceRNS_9allocatorIS1_EEE9__end_capB8ue170006Ev, symObjAddr: 0x33DC, symBinAddr: 0x100018528, symSize: 0x28 }
  - { offsetInCU: 0xF758, offset: 0x49263, size: 0x8, addend: 0x0, symName: __ZNSt3__117__compressed_pairIP14CorrespondenceRNS_9allocatorIS1_EEEC2B8ue170006IDnS5_EEOT_OT0_, symObjAddr: 0x3404, symBinAddr: 0x100018550, symSize: 0x48 }
  - { offsetInCU: 0xF7B0, offset: 0x492BB, size: 0x8, addend: 0x0, symName: __ZNSt3__122__compressed_pair_elemIRNS_9allocatorI14CorrespondenceEELi1ELb0EEC2B8ue170006IS4_vEEOT_, symObjAddr: 0x3468, symBinAddr: 0x100018598, symSize: 0x20 }
  - { offsetInCU: 0xF7F2, offset: 0x492FD, size: 0x8, addend: 0x0, symName: __ZNSt3__19allocatorI14CorrespondenceE8allocateB8ue170006Em, symObjAddr: 0x3488, symBinAddr: 0x1000185B8, symSize: 0x58 }
  - { offsetInCU: 0xF826, offset: 0x49331, size: 0x8, addend: 0x0, symName: __ZNSt3__117__compressed_pairIP14CorrespondenceRNS_9allocatorIS1_EEE6secondB8ue170006Ev, symObjAddr: 0x3560, symBinAddr: 0x100018610, symSize: 0x28 }
  - { offsetInCU: 0xF84C, offset: 0x49357, size: 0x8, addend: 0x0, symName: __ZNSt3__122__compressed_pair_elemIRNS_9allocatorI14CorrespondenceEELi1ELb0EE5__getB8ue170006Ev, symObjAddr: 0x3588, symBinAddr: 0x100018638, symSize: 0x18 }
  - { offsetInCU: 0xF872, offset: 0x4937D, size: 0x8, addend: 0x0, symName: __ZNSt3__117__compressed_pairIP14CorrespondenceRNS_9allocatorIS1_EEE5firstB8ue170006Ev, symObjAddr: 0x35A0, symBinAddr: 0x100018650, symSize: 0x24 }
  - { offsetInCU: 0xF898, offset: 0x493A3, size: 0x8, addend: 0x0, symName: __ZNSt3__116reverse_iteratorIP14CorrespondenceEC1B8ue170006ES2_, symObjAddr: 0x36F4, symBinAddr: 0x1000186EC, symSize: 0x34 }
  - { offsetInCU: 0xF8D0, offset: 0x493DB, size: 0x8, addend: 0x0, symName: __ZNKSt3__116reverse_iteratorIP14CorrespondenceE4baseB8ue170006Ev, symObjAddr: 0x3728, symBinAddr: 0x100018720, symSize: 0x18 }
  - { offsetInCU: 0xF8F6, offset: 0x49401, size: 0x8, addend: 0x0, symName: __ZNKSt3__16vectorI14CorrespondenceNS_9allocatorIS1_EEE14__annotate_newB8ue170006Em, symObjAddr: 0x377C, symBinAddr: 0x100018774, symSize: 0xAC }
  - { offsetInCU: 0xF94E, offset: 0x49459, size: 0x8, addend: 0x0, symName: __ZNKSt3__111__move_loopINS_17_ClassicAlgPolicyEEclB8ue170006INS_16reverse_iteratorIP14CorrespondenceEES7_S7_EENS_4pairIT_T1_EES9_T0_SA_, symObjAddr: 0x3B60, symBinAddr: 0x100018B10, symSize: 0xA8 }
  - { offsetInCU: 0xF9BE, offset: 0x494C9, size: 0x8, addend: 0x0, symName: __ZNSt3__18_IterOpsINS_17_ClassicAlgPolicyEE11__iter_moveB8ue170006IRNS_16reverse_iteratorIP14CorrespondenceEEEENS_9enable_ifIXsr12is_referenceIDTdeclsr3stdE7declvalIRT_EEEEE5valueEDTclsr3stdE4movedeclsr3stdE7declvalISB_EEEEE4typeEOSA_, symObjAddr: 0x3D9C, symBinAddr: 0x100018D4C, symSize: 0x28 }
  - { offsetInCU: 0xF9EA, offset: 0x494F5, size: 0x8, addend: 0x0, symName: __ZNKSt3__116reverse_iteratorIP14CorrespondenceEdeB8ue170006Ev, symObjAddr: 0x3DC4, symBinAddr: 0x100018D74, symSize: 0x28 }
  - { offsetInCU: 0xFA1E, offset: 0x49529, size: 0x8, addend: 0x0, symName: __ZNSt3__116reverse_iteratorIP14CorrespondenceEppB8ue170006Ev, symObjAddr: 0x3DEC, symBinAddr: 0x100018D9C, symSize: 0x20 }
  - { offsetInCU: 0xFA44, offset: 0x4954F, size: 0x8, addend: 0x0, symName: __ZNSt3__18_IterOpsINS_17_ClassicAlgPolicyEE25__validate_iter_referenceB8ue170006IRNS_16reverse_iteratorIP14CorrespondenceEEEEvv, symObjAddr: 0x3E0C, symBinAddr: 0x100018DBC, symSize: 0x4 }
  - { offsetInCU: 0xFA62, offset: 0x4956D, size: 0x8, addend: 0x0, symName: __ZNSt3__118__unwrap_iter_implINS_16reverse_iteratorIP14CorrespondenceEELb0EE8__unwrapB8ue170006ES4_, symObjAddr: 0x3E10, symBinAddr: 0x100018DC0, symSize: 0x24 }
  - { offsetInCU: 0xFA8A, offset: 0x49595, size: 0x8, addend: 0x0, symName: __ZNSt3__14pairINS_16reverse_iteratorIP14CorrespondenceEES4_EC1B8ue170006IS4_S4_LPv0EEEOT_OT0_, symObjAddr: 0x3E34, symBinAddr: 0x100018DE4, symSize: 0x3C }
  - { offsetInCU: 0xFAE8, offset: 0x495F3, size: 0x8, addend: 0x0, symName: __ZNSt3__14pairINS_16reverse_iteratorIP14CorrespondenceEES4_EC2B8ue170006IS4_S4_LPv0EEEOT_OT0_, symObjAddr: 0x3E70, symBinAddr: 0x100018E20, symSize: 0x34 }
  - { offsetInCU: 0xFB46, offset: 0x49651, size: 0x8, addend: 0x0, symName: __ZNSt3__118__unwrap_iter_implINS_16reverse_iteratorIP14CorrespondenceEELb0EE8__rewrapB8ue170006ES4_S4_, symObjAddr: 0x3EA4, symBinAddr: 0x100018E54, symSize: 0x2C }
  - { offsetInCU: 0xFB74, offset: 0x4967F, size: 0x8, addend: 0x0, symName: __ZNSt3__116reverse_iteratorIP14CorrespondenceEC2B8ue170006ES2_, symObjAddr: 0x3ED0, symBinAddr: 0x100018E80, symSize: 0x28 }
  - { offsetInCU: 0xFBAC, offset: 0x496B7, size: 0x8, addend: 0x0, symName: __ZNSt3__114__split_bufferI14CorrespondenceRNS_9allocatorIS1_EEED2Ev, symObjAddr: 0x3EF8, symBinAddr: 0x100018EA8, symSize: 0x8C }
  - { offsetInCU: 0xFBD8, offset: 0x496E3, size: 0x8, addend: 0x0, symName: __ZNSt3__114__split_bufferI14CorrespondenceRNS_9allocatorIS1_EEE5clearB8ue170006Ev, symObjAddr: 0x3F84, symBinAddr: 0x100018F34, symSize: 0x28 }
  - { offsetInCU: 0xFBFE, offset: 0x49709, size: 0x8, addend: 0x0, symName: __ZNKSt3__114__split_bufferI14CorrespondenceRNS_9allocatorIS1_EEE8capacityB8ue170006Ev, symObjAddr: 0x3FE0, symBinAddr: 0x100018F5C, symSize: 0x40 }
  - { offsetInCU: 0xFC24, offset: 0x4972F, size: 0x8, addend: 0x0, symName: __ZNSt3__114__split_bufferI14CorrespondenceRNS_9allocatorIS1_EEE17__destruct_at_endB8ue170006EPS1_, symObjAddr: 0x4020, symBinAddr: 0x100018F9C, symSize: 0x2C }
  - { offsetInCU: 0xFC58, offset: 0x49763, size: 0x8, addend: 0x0, symName: __ZNSt3__114__split_bufferI14CorrespondenceRNS_9allocatorIS1_EEE17__destruct_at_endB8ue170006EPS1_NS_17integral_constantIbLb0EEE, symObjAddr: 0x404C, symBinAddr: 0x100018FC8, symSize: 0x80 }
  - { offsetInCU: 0xFC99, offset: 0x497A4, size: 0x8, addend: 0x0, symName: __ZNKSt3__114__split_bufferI14CorrespondenceRNS_9allocatorIS1_EEE9__end_capB8ue170006Ev, symObjAddr: 0x41C8, symBinAddr: 0x100019048, symSize: 0x28 }
  - { offsetInCU: 0xFCBF, offset: 0x497CA, size: 0x8, addend: 0x0, symName: __ZNKSt3__117__compressed_pairIP14CorrespondenceRNS_9allocatorIS1_EEE5firstB8ue170006Ev, symObjAddr: 0x41F0, symBinAddr: 0x100019070, symSize: 0x24 }
  - { offsetInCU: 0xFCE5, offset: 0x497F0, size: 0x8, addend: 0x0, symName: __ZN2cv7Scalar_IdEC2Edddd, symObjAddr: 0x4298, symBinAddr: 0x100019094, symSize: 0x5C }
  - { offsetInCU: 0xFD4D, offset: 0x49858, size: 0x8, addend: 0x0, symName: __ZN2cv3VecIdLi4EEC2Ev, symObjAddr: 0x42F4, symBinAddr: 0x1000190F0, symSize: 0x2C }
  - { offsetInCU: 0xFD79, offset: 0x49884, size: 0x8, addend: 0x0, symName: __ZN2cv4MatxIdLi4ELi1EEC2Ev, symObjAddr: 0x4320, symBinAddr: 0x10001911C, symSize: 0x60 }
  - { offsetInCU: 0xFDC3, offset: 0x498CE, size: 0x8, addend: 0x0, symName: __ZL7cvRoundd, symObjAddr: 0x43A4, symBinAddr: 0x1000191A0, symSize: 0x28 }
  - { offsetInCU: 0xFDF0, offset: 0x498FB, size: 0x8, addend: 0x0, symName: __ZNSt3__113basic_istreamIcNS_11char_traitsIcEEEC2B8ue170006EPNS_15basic_streambufIcS2_EE, symObjAddr: 0x44D8, symBinAddr: 0x1000191C8, symSize: 0x64 }
  - { offsetInCU: 0xFE35, offset: 0x49940, size: 0x8, addend: 0x0, symName: __ZNKSt3__16vectorI14CorrespondenceNS_9allocatorIS1_EEE17__annotate_shrinkB8ue170006Em, symObjAddr: 0x4564, symBinAddr: 0x10001922C, symSize: 0xB4 }
  - { offsetInCU: 0xFE88, offset: 0x49993, size: 0x8, addend: 0x0, symName: __ZNKSt3__113basic_istreamIcNS_11char_traitsIcEEE6sentrycvbB8ue170006Ev, symObjAddr: 0x48DC, symBinAddr: 0x100019518, symSize: 0x1C }
  - { offsetInCU: 0xFEAE, offset: 0x499B9, size: 0x8, addend: 0x0, symName: __ZNSt3__112basic_stringIcNS_11char_traitsIcEENS_9allocatorIcEEE5clearB8ue170006Ev, symObjAddr: 0x48F8, symBinAddr: 0x100019534, symSize: 0x78 }
  - { offsetInCU: 0xFED6, offset: 0x499E1, size: 0x8, addend: 0x0, symName: __ZNSt3__115basic_streambufIcNS_11char_traitsIcEEE6sbumpcB8ue170006Ev, symObjAddr: 0x4970, symBinAddr: 0x1000195AC, symSize: 0x78 }
  - { offsetInCU: 0xFEFC, offset: 0x49A07, size: 0x8, addend: 0x0, symName: __ZNSt3__111char_traitsIcE12to_char_typeB8ue170006Ei, symObjAddr: 0x49E8, symBinAddr: 0x100019624, symSize: 0x18 }
  - { offsetInCU: 0xFF1F, offset: 0x49A2A, size: 0x8, addend: 0x0, symName: __ZNSt3__111char_traitsIcE2eqEcc, symObjAddr: 0x4A00, symBinAddr: 0x10001963C, symSize: 0x28 }
  - { offsetInCU: 0xFF50, offset: 0x49A5B, size: 0x8, addend: 0x0, symName: __ZNKSt3__112basic_stringIcNS_11char_traitsIcEENS_9allocatorIcEEE8max_sizeB8ue170006Ev, symObjAddr: 0x4A28, symBinAddr: 0x100019664, symSize: 0xAC }
  - { offsetInCU: 0xFFA3, offset: 0x49AAE, size: 0x8, addend: 0x0, symName: __ZNSt3__18ios_base18__setstate_nothrowB8ue170006Ej, symObjAddr: 0x4AD4, symBinAddr: 0x100019710, symSize: 0x64 }
  - { offsetInCU: 0xFFD8, offset: 0x49AE3, size: 0x8, addend: 0x0, symName: __ZNKSt3__19basic_iosIcNS_11char_traitsIcEEE10exceptionsB8ue170006Ev, symObjAddr: 0x4B38, symBinAddr: 0x100019774, symSize: 0x24 }
  - { offsetInCU: 0xFFFE, offset: 0x49B09, size: 0x8, addend: 0x0, symName: __ZNSt3__111char_traitsIcE6assignB8ue170006ERcRKc, symObjAddr: 0x4B5C, symBinAddr: 0x100019798, symSize: 0x24 }
  - { offsetInCU: 0x1002F, offset: 0x49B3A, size: 0x8, addend: 0x0, symName: __ZNSt3__112basic_stringIcNS_11char_traitsIcEENS_9allocatorIcEEE18__get_long_pointerB8ue170006Ev, symObjAddr: 0x4B80, symBinAddr: 0x1000197BC, symSize: 0x28 }
  - { offsetInCU: 0x10055, offset: 0x49B60, size: 0x8, addend: 0x0, symName: __ZNSt3__112basic_stringIcNS_11char_traitsIcEENS_9allocatorIcEEE15__set_long_sizeB8ue170006Em, symObjAddr: 0x4BA8, symBinAddr: 0x1000197E4, symSize: 0x38 }
  - { offsetInCU: 0x1008A, offset: 0x49B95, size: 0x8, addend: 0x0, symName: __ZNSt3__112basic_stringIcNS_11char_traitsIcEENS_9allocatorIcEEE19__get_short_pointerB8ue170006Ev, symObjAddr: 0x4BE0, symBinAddr: 0x10001981C, symSize: 0x28 }
  - { offsetInCU: 0x100B0, offset: 0x49BBB, size: 0x8, addend: 0x0, symName: __ZNSt3__112basic_stringIcNS_11char_traitsIcEENS_9allocatorIcEEE16__set_short_sizeB8ue170006Em, symObjAddr: 0x4C08, symBinAddr: 0x100019844, symSize: 0x78 }
  - { offsetInCU: 0x100E5, offset: 0x49BF0, size: 0x8, addend: 0x0, symName: __ZNSt3__114pointer_traitsIPcE10pointer_toB8ue170006ERc, symObjAddr: 0x4C80, symBinAddr: 0x1000198BC, symSize: 0x14 }
  - { offsetInCU: 0x10108, offset: 0x49C13, size: 0x8, addend: 0x0, symName: __ZNSt3__111char_traitsIcE11to_int_typeB8ue170006Ec, symObjAddr: 0x4C94, symBinAddr: 0x1000198D0, symSize: 0x14 }
  - { offsetInCU: 0x10136, offset: 0x49C41, size: 0x8, addend: 0x0, symName: __ZNSt3__116allocator_traitsINS_9allocatorIcEEE8max_sizeB8ue170006IS2_vEEmRKS2_, symObjAddr: 0x4CA8, symBinAddr: 0x1000198E4, symSize: 0x24 }
  - { offsetInCU: 0x10164, offset: 0x49C6F, size: 0x8, addend: 0x0, symName: __ZNKSt3__112basic_stringIcNS_11char_traitsIcEENS_9allocatorIcEEE7__allocB8ue170006Ev, symObjAddr: 0x4CCC, symBinAddr: 0x100019908, symSize: 0x24 }
  - { offsetInCU: 0x1018A, offset: 0x49C95, size: 0x8, addend: 0x0, symName: __ZNSt3__114numeric_limitsImE3maxB8ue170006Ev, symObjAddr: 0x4CF0, symBinAddr: 0x10001992C, symSize: 0x14 }
  - { offsetInCU: 0x1019E, offset: 0x49CA9, size: 0x8, addend: 0x0, symName: __ZNKSt3__19allocatorIcE8max_sizeB8ue170006Ev, symObjAddr: 0x4D04, symBinAddr: 0x100019940, symSize: 0x14 }
  - { offsetInCU: 0x101C4, offset: 0x49CCF, size: 0x8, addend: 0x0, symName: __ZNKSt3__117__compressed_pairINS_12basic_stringIcNS_11char_traitsIcEENS_9allocatorIcEEE5__repES5_E6secondB8ue170006Ev, symObjAddr: 0x4D18, symBinAddr: 0x100019954, symSize: 0x24 }
  - { offsetInCU: 0x101EA, offset: 0x49CF5, size: 0x8, addend: 0x0, symName: __ZNKSt3__122__compressed_pair_elemINS_9allocatorIcEELi1ELb1EE5__getB8ue170006Ev, symObjAddr: 0x4D3C, symBinAddr: 0x100019978, symSize: 0x14 }
  - { offsetInCU: 0x10210, offset: 0x49D1B, size: 0x8, addend: 0x0, symName: __ZNSt3__123__libcpp_numeric_limitsImLb1EE3maxB8ue170006Ev, symObjAddr: 0x4D50, symBinAddr: 0x10001998C, symSize: 0x8 }
  - { offsetInCU: 0x10224, offset: 0x49D2F, size: 0x8, addend: 0x0, symName: __ZNKSt3__18ios_base10exceptionsB8ue170006Ev, symObjAddr: 0x4D58, symBinAddr: 0x100019994, symSize: 0x18 }
  - { offsetInCU: 0x1024C, offset: 0x49D57, size: 0x8, addend: 0x0, symName: __ZNKSt3__19basic_iosIcNS_11char_traitsIcEEE4failB8ue170006Ev, symObjAddr: 0x4D70, symBinAddr: 0x1000199AC, symSize: 0x28 }
  - { offsetInCU: 0x10272, offset: 0x49D7D, size: 0x8, addend: 0x0, symName: __ZNKSt3__18ios_base4failB8ue170006Ev, symObjAddr: 0x4D98, symBinAddr: 0x1000199D4, symSize: 0x28 }
  - { offsetInCU: 0x1029A, offset: 0x49DA5, size: 0x8, addend: 0x0, symName: __ZNSt3__115basic_stringbufIcNS_11char_traitsIcEENS_9allocatorIcEEEC1B8ue170006ERKNS_12basic_stringIcS2_S4_EEj, symObjAddr: 0x4DC0, symBinAddr: 0x1000199FC, symSize: 0x3C }
  - { offsetInCU: 0x102E2, offset: 0x49DED, size: 0x8, addend: 0x0, symName: __ZNSt3__115basic_stringbufIcNS_11char_traitsIcEENS_9allocatorIcEEEC2B8ue170006ERKNS_12basic_stringIcS2_S4_EEj, symObjAddr: 0x4DFC, symBinAddr: 0x100019A38, symSize: 0xB4 }
  - { offsetInCU: 0x1032A, offset: 0x49E35, size: 0x8, addend: 0x0, symName: __ZNKSt3__112basic_stringIcNS_11char_traitsIcEENS_9allocatorIcEEE13get_allocatorB8ue170006Ev, symObjAddr: 0x4EB0, symBinAddr: 0x100019AEC, symSize: 0x24 }
  - { offsetInCU: 0x10350, offset: 0x49E5B, size: 0x8, addend: 0x0, symName: __ZNSt3__112basic_stringIcNS_11char_traitsIcEENS_9allocatorIcEEEC1B8ue170006ERKS4_, symObjAddr: 0x4ED4, symBinAddr: 0x100019B10, symSize: 0x34 }
  - { offsetInCU: 0x10389, offset: 0x49E94, size: 0x8, addend: 0x0, symName: __ZNSt3__112basic_stringIcNS_11char_traitsIcEENS_9allocatorIcEEEC2B8ue170006ERKS4_, symObjAddr: 0x4F08, symBinAddr: 0x100019B44, symSize: 0x48 }
  - { offsetInCU: 0x103C2, offset: 0x49ECD, size: 0x8, addend: 0x0, symName: __ZNSt3__117__compressed_pairINS_12basic_stringIcNS_11char_traitsIcEENS_9allocatorIcEEE5__repES5_EC1B8ue170006INS_18__default_init_tagERKS5_EEOT_OT0_, symObjAddr: 0x4F50, symBinAddr: 0x100019B8C, symSize: 0x3C }
  - { offsetInCU: 0x1041A, offset: 0x49F25, size: 0x8, addend: 0x0, symName: __ZNSt3__117__compressed_pairINS_12basic_stringIcNS_11char_traitsIcEENS_9allocatorIcEEE5__repES5_EC2B8ue170006INS_18__default_init_tagERKS5_EEOT_OT0_, symObjAddr: 0x4F8C, symBinAddr: 0x100019BC8, symSize: 0x40 }
  - { offsetInCU: 0x10472, offset: 0x49F7D, size: 0x8, addend: 0x0, symName: __ZNSt3__122__compressed_pair_elemINS_9allocatorIcEELi1ELb1EEC2B8ue170006IRKS2_vEEOT_, symObjAddr: 0x4FCC, symBinAddr: 0x100019C08, symSize: 0x18 }
  - { offsetInCU: 0x851A, offset: 0x525A0, size: 0x8, addend: 0x0, symName: __ZNSt3__17advanceB8ue170006IP9DataPointllvEEvRT_T0_, symObjAddr: 0x9FB4, symBinAddr: 0x10001F9C4, symSize: 0x38 }
  - { offsetInCU: 0xB159, offset: 0x551DF, size: 0x8, addend: 0x0, symName: __ZNSt3__1neB8ue170006IPP19MouseCallbackParamsEEbRKNS_11__wrap_iterIT_EES8_, symObjAddr: 0x348, symBinAddr: 0x100019EA0, symSize: 0x34 }
  - { offsetInCU: 0xB89D, offset: 0x55923, size: 0x8, addend: 0x0, symName: __ZNSt3__16removeB8ue170006INS_11__wrap_iterIPcEEcEET_S4_S4_RKT0_, symObjAddr: 0xE40, symBinAddr: 0x10001A5C8, symSize: 0x108 }
  - { offsetInCU: 0xBCA6, offset: 0x55D2C, size: 0x8, addend: 0x0, symName: __ZNSt3__1neB8ue170006IPN2cv7Point3_IfEEEEbRKNS_11__wrap_iterIT_EES9_, symObjAddr: 0x1C0C, symBinAddr: 0x10001B000, symSize: 0x34 }
  - { offsetInCU: 0xBCE9, offset: 0x55D6F, size: 0x8, addend: 0x0, symName: __ZNSt3__1neB8ue170006IPNS_12basic_stringIcNS_11char_traitsIcEENS_9allocatorIcEEEEEEbRKNS_11__wrap_iterIT_EESC_, symObjAddr: 0x2304, symBinAddr: 0x10001B6F8, symSize: 0x34 }
  - { offsetInCU: 0xBD2C, offset: 0x55DB2, size: 0x8, addend: 0x0, symName: __ZNSt3__1eqB8ue170006IPP19MouseCallbackParamsEEbRKNS_11__wrap_iterIT_EES8_, symObjAddr: 0x24BC, symBinAddr: 0x10001B858, symSize: 0x48 }
  - { offsetInCU: 0xBD6F, offset: 0x55DF5, size: 0x8, addend: 0x0, symName: __ZNSt3__1eqB8ue170006IPN2cv7Point3_IfEEEEbRKNS_11__wrap_iterIT_EES9_, symObjAddr: 0x2A7C, symBinAddr: 0x10001B92C, symSize: 0x48 }
  - { offsetInCU: 0xBDB2, offset: 0x55E38, size: 0x8, addend: 0x0, symName: __ZNSt3__1eqB8ue170006IPNS_12basic_stringIcNS_11char_traitsIcEENS_9allocatorIcEEEEEEbRKNS_11__wrap_iterIT_EESC_, symObjAddr: 0x2ADC, symBinAddr: 0x10001B98C, symSize: 0x48 }
  - { offsetInCU: 0xBE33, offset: 0x55EB9, size: 0x8, addend: 0x0, symName: __ZNSt3__112__to_addressB8ue170006I9DataPointEEPT_S3_, symObjAddr: 0x3FE8, symBinAddr: 0x10001BEC0, symSize: 0x14 }
  - { offsetInCU: 0xBE68, offset: 0x55EEE, size: 0x8, addend: 0x0, symName: __ZNSt3__119__allocate_at_leastB8ue170006INS_9allocatorIP19MouseCallbackParamsEEEENS_19__allocation_resultINS_16allocator_traitsIT_E7pointerEEERS7_m, symObjAddr: 0x52F8, symBinAddr: 0x10001C77C, symSize: 0x40 }
  - { offsetInCU: 0xBEAB, offset: 0x55F31, size: 0x8, addend: 0x0, symName: __ZNSt3__142__uninitialized_allocator_move_if_noexceptB8ue170006INS_9allocatorIP19MouseCallbackParamsEENS_16reverse_iteratorIPS3_EES7_S3_vEET1_RT_T0_SB_S8_, symObjAddr: 0x5600, symBinAddr: 0x10001C930, symSize: 0x78 }
  - { offsetInCU: 0xBF28, offset: 0x55FAE, size: 0x8, addend: 0x0, symName: __ZNSt3__14swapB8ue170006IPP19MouseCallbackParamsEENS_9enable_ifIXaasr21is_move_constructibleIT_EE5valuesr18is_move_assignableIS5_EE5valueEvE4typeERS5_S8_, symObjAddr: 0x56C4, symBinAddr: 0x10001C9F4, symSize: 0x3C }
  - { offsetInCU: 0xBF79, offset: 0x55FFF, size: 0x8, addend: 0x0, symName: __ZNSt3__14moveB8ue170006INS_16reverse_iteratorIPP19MouseCallbackParamsEES5_EET0_T_S7_S6_, symObjAddr: 0x57F4, symBinAddr: 0x10001CADC, symSize: 0x78 }
  - { offsetInCU: 0xBFD3, offset: 0x56059, size: 0x8, addend: 0x0, symName: __ZNSt3__16__moveB8ue170006INS_17_ClassicAlgPolicyENS_16reverse_iteratorIPP19MouseCallbackParamsEES6_S6_EENS_4pairIT0_T2_EES8_T1_S9_, symObjAddr: 0x586C, symBinAddr: 0x10001CB54, symSize: 0x64 }
  - { offsetInCU: 0xC03F, offset: 0x560C5, size: 0x8, addend: 0x0, symName: __ZNSt3__123__dispatch_copy_or_moveB8ue170006INS_17_ClassicAlgPolicyENS_11__move_loopIS1_EENS_14__move_trivialENS_16reverse_iteratorIPP19MouseCallbackParamsEES9_S9_EENS_4pairIT2_T4_EESB_T3_SC_, symObjAddr: 0x58D0, symBinAddr: 0x10001CBB8, symSize: 0x64 }
  - { offsetInCU: 0xC0BD, offset: 0x56143, size: 0x8, addend: 0x0, symName: __ZNSt3__121__unwrap_and_dispatchB8ue170006INS_10__overloadINS_11__move_loopINS_17_ClassicAlgPolicyEEENS_14__move_trivialEEENS_16reverse_iteratorIPP19MouseCallbackParamsEESB_SB_Li0EEENS_4pairIT0_T2_EESD_T1_SE_, symObjAddr: 0x5934, symBinAddr: 0x10001CC1C, symSize: 0x12C }
  - { offsetInCU: 0xC14D, offset: 0x561D3, size: 0x8, addend: 0x0, symName: __ZNSt3__114__unwrap_rangeB8ue170006INS_16reverse_iteratorIPP19MouseCallbackParamsEES5_EENS_4pairIT0_S7_EET_S9_, symObjAddr: 0x5A60, symBinAddr: 0x10001CD48, symSize: 0x84 }
  - { offsetInCU: 0xC33D, offset: 0x563C3, size: 0x8, addend: 0x0, symName: __ZNSt3__113__unwrap_iterB8ue170006INS_16reverse_iteratorIPP19MouseCallbackParamsEENS_18__unwrap_iter_implIS5_Lb0EEELi0EEEDTclsrT0_8__unwrapclsr3stdE7declvalIT_EEEES9_, symObjAddr: 0x5B84, symBinAddr: 0x10001CE6C, symSize: 0x44 }
  - { offsetInCU: 0xC381, offset: 0x56407, size: 0x8, addend: 0x0, symName: __ZNSt3__19make_pairB8ue170006INS_16reverse_iteratorIPP19MouseCallbackParamsEES5_EENS_4pairINS_18__unwrap_ref_decayIT_E4typeENS7_IT0_E4typeEEEOS8_OSB_, symObjAddr: 0x5BC8, symBinAddr: 0x10001CEB0, symSize: 0x38 }
  - { offsetInCU: 0xC3D0, offset: 0x56456, size: 0x8, addend: 0x0, symName: __ZNSt3__114__rewrap_rangeB8ue170006INS_16reverse_iteratorIPP19MouseCallbackParamsEES5_EET_S6_T0_, symObjAddr: 0x5C00, symBinAddr: 0x10001CEE8, symSize: 0x5C }
  - { offsetInCU: 0xC41C, offset: 0x564A2, size: 0x8, addend: 0x0, symName: __ZNSt3__113__rewrap_iterB8ue170006INS_16reverse_iteratorIPP19MouseCallbackParamsEES5_NS_18__unwrap_iter_implIS5_Lb0EEEEET_S8_T0_, symObjAddr: 0x5C5C, symBinAddr: 0x10001CF44, symSize: 0x74 }
  - { offsetInCU: 0xC471, offset: 0x564F7, size: 0x8, addend: 0x0, symName: __ZNSt3__1neB8ue170006IPP19MouseCallbackParamsS3_EEbRKNS_16reverse_iteratorIT_EERKNS4_IT0_EE, symObjAddr: 0x5CD0, symBinAddr: 0x10001CFB8, symSize: 0x48 }
  - { offsetInCU: 0xC5D5, offset: 0x5665B, size: 0x8, addend: 0x0, symName: __ZNSt3__119__allocate_at_leastB8ue170006INS_9allocatorI9DataPointEEEENS_19__allocation_resultINS_16allocator_traitsIT_E7pointerEEERS6_m, symObjAddr: 0x687C, symBinAddr: 0x10001DAB0, symSize: 0x40 }
  - { offsetInCU: 0xC618, offset: 0x5669E, size: 0x8, addend: 0x0, symName: __ZNSt3__142__uninitialized_allocator_move_if_noexceptB8ue170006INS_9allocatorI9DataPointEENS_16reverse_iteratorIPS2_EES6_S2_vEET1_RT_T0_SA_S7_, symObjAddr: 0x6A34, symBinAddr: 0x10001DC68, symSize: 0x78 }
  - { offsetInCU: 0xC695, offset: 0x5671B, size: 0x8, addend: 0x0, symName: __ZNSt3__14swapB8ue170006IP9DataPointEENS_9enable_ifIXaasr21is_move_constructibleIT_EE5valuesr18is_move_assignableIS4_EE5valueEvE4typeERS4_S7_, symObjAddr: 0x6AF8, symBinAddr: 0x10001DD2C, symSize: 0x3C }
  - { offsetInCU: 0xC6E6, offset: 0x5676C, size: 0x8, addend: 0x0, symName: __ZNSt3__14moveB8ue170006INS_16reverse_iteratorIP9DataPointEES4_EET0_T_S6_S5_, symObjAddr: 0x6BFC, symBinAddr: 0x10001DE30, symSize: 0x78 }
  - { offsetInCU: 0xC740, offset: 0x567C6, size: 0x8, addend: 0x0, symName: __ZNSt3__16__moveB8ue170006INS_17_ClassicAlgPolicyENS_16reverse_iteratorIP9DataPointEES5_S5_EENS_4pairIT0_T2_EES7_T1_S8_, symObjAddr: 0x6C74, symBinAddr: 0x10001DEA8, symSize: 0x64 }
  - { offsetInCU: 0xC7AC, offset: 0x56832, size: 0x8, addend: 0x0, symName: __ZNSt3__123__dispatch_copy_or_moveB8ue170006INS_17_ClassicAlgPolicyENS_11__move_loopIS1_EENS_14__move_trivialENS_16reverse_iteratorIP9DataPointEES8_S8_EENS_4pairIT2_T4_EESA_T3_SB_, symObjAddr: 0x6CD8, symBinAddr: 0x10001DF0C, symSize: 0x64 }
  - { offsetInCU: 0xC82A, offset: 0x568B0, size: 0x8, addend: 0x0, symName: __ZNSt3__121__unwrap_and_dispatchB8ue170006INS_10__overloadINS_11__move_loopINS_17_ClassicAlgPolicyEEENS_14__move_trivialEEENS_16reverse_iteratorIP9DataPointEESA_SA_Li0EEENS_4pairIT0_T2_EESC_T1_SD_, symObjAddr: 0x6D3C, symBinAddr: 0x10001DF70, symSize: 0x12C }
  - { offsetInCU: 0xC8BA, offset: 0x56940, size: 0x8, addend: 0x0, symName: __ZNSt3__114__unwrap_rangeB8ue170006INS_16reverse_iteratorIP9DataPointEES4_EENS_4pairIT0_S6_EET_S8_, symObjAddr: 0x6E68, symBinAddr: 0x10001E09C, symSize: 0x84 }
  - { offsetInCU: 0xC9DA, offset: 0x56A60, size: 0x8, addend: 0x0, symName: __ZNSt3__113__unwrap_iterB8ue170006INS_16reverse_iteratorIP9DataPointEENS_18__unwrap_iter_implIS4_Lb0EEELi0EEEDTclsrT0_8__unwrapclsr3stdE7declvalIT_EEEES8_, symObjAddr: 0x6F94, symBinAddr: 0x10001E1C8, symSize: 0x44 }
  - { offsetInCU: 0xCA1E, offset: 0x56AA4, size: 0x8, addend: 0x0, symName: __ZNSt3__19make_pairB8ue170006INS_16reverse_iteratorIP9DataPointEES4_EENS_4pairINS_18__unwrap_ref_decayIT_E4typeENS6_IT0_E4typeEEEOS7_OSA_, symObjAddr: 0x6FD8, symBinAddr: 0x10001E20C, symSize: 0x38 }
  - { offsetInCU: 0xCA6D, offset: 0x56AF3, size: 0x8, addend: 0x0, symName: __ZNSt3__114__rewrap_rangeB8ue170006INS_16reverse_iteratorIP9DataPointEES4_EET_S5_T0_, symObjAddr: 0x7010, symBinAddr: 0x10001E244, symSize: 0x5C }
  - { offsetInCU: 0xCAB9, offset: 0x56B3F, size: 0x8, addend: 0x0, symName: __ZNSt3__113__rewrap_iterB8ue170006INS_16reverse_iteratorIP9DataPointEES4_NS_18__unwrap_iter_implIS4_Lb0EEEEET_S7_T0_, symObjAddr: 0x706C, symBinAddr: 0x10001E2A0, symSize: 0x74 }
  - { offsetInCU: 0xCB0E, offset: 0x56B94, size: 0x8, addend: 0x0, symName: __ZNSt3__1neB8ue170006IP9DataPointS2_EEbRKNS_16reverse_iteratorIT_EERKNS3_IT0_EE, symObjAddr: 0x70E0, symBinAddr: 0x10001E314, symSize: 0x48 }
  - { offsetInCU: 0xCBC6, offset: 0x56C4C, size: 0x8, addend: 0x0, symName: __ZNSt3__14findB8ue170006INS_11__wrap_iterIPcEEcEET_S4_S4_RKT0_, symObjAddr: 0x7470, symBinAddr: 0x10001E6A4, symSize: 0x78 }
  - { offsetInCU: 0xCC2E, offset: 0x56CB4, size: 0x8, addend: 0x0, symName: __ZNSt3__1neB8ue170006IPcEEbRKNS_11__wrap_iterIT_EES6_, symObjAddr: 0x74E8, symBinAddr: 0x10001E71C, symSize: 0x34 }
  - { offsetInCU: 0xCC71, offset: 0x56CF7, size: 0x8, addend: 0x0, symName: __ZNSt3__113__rewrap_iterB8ue170006INS_11__wrap_iterIPcEES2_NS_18__unwrap_iter_implIS3_Lb1EEEEET_S6_T0_, symObjAddr: 0x7554, symBinAddr: 0x10001E788, symSize: 0x4C }
  - { offsetInCU: 0xCCC6, offset: 0x56D4C, size: 0x8, addend: 0x0, symName: __ZNSt3__111__find_implB8ue170006IccNS_10__identityELi0EEEPT_S3_S3_RKT0_RT1_, symObjAddr: 0x75A0, symBinAddr: 0x10001E7D4, symSize: 0x78 }
  - { offsetInCU: 0xCD4E, offset: 0x56DD4, size: 0x8, addend: 0x0, symName: __ZNSt3__113__unwrap_iterB8ue170006INS_11__wrap_iterIPcEENS_18__unwrap_iter_implIS3_Lb1EEELi0EEEDTclsrT0_8__unwrapclsr3stdE7declvalIT_EEEES7_, symObjAddr: 0x7618, symBinAddr: 0x10001E84C, symSize: 0x2C }
  - { offsetInCU: 0xCDE5, offset: 0x56E6B, size: 0x8, addend: 0x0, symName: __ZNSt3__112__to_addressB8ue170006INS_11__wrap_iterIPcEEvEEu7__decayIDTclsr19__to_address_helperIT_EE6__callclsr3stdE7declvalIRKS4_EEEEES6_, symObjAddr: 0x76D4, symBinAddr: 0x10001E908, symSize: 0x24 }
  - { offsetInCU: 0xCE82, offset: 0x56F08, size: 0x8, addend: 0x0, symName: __ZNSt3__112__to_addressB8ue170006IcEEPT_S2_, symObjAddr: 0x777C, symBinAddr: 0x10001E9B0, symSize: 0x14 }
  - { offsetInCU: 0xCEB7, offset: 0x56F3D, size: 0x8, addend: 0x0, symName: __ZNSt3__118__constexpr_memchrB8ue170006IccEEPT_S2_T0_m, symObjAddr: 0x77A8, symBinAddr: 0x10001E9DC, symSize: 0x40 }
  - { offsetInCU: 0xCF2E, offset: 0x56FB4, size: 0x8, addend: 0x0, symName: __ZNSt3__1eqB8ue170006IPcEEbRKNS_11__wrap_iterIT_EES6_, symObjAddr: 0x7810, symBinAddr: 0x10001EA44, symSize: 0x48 }
  - { offsetInCU: 0xCF71, offset: 0x56FF7, size: 0x8, addend: 0x0, symName: __ZNSt3__1miB8ue170006IPKcPcEEDTmicldtfp_4baseEcldtfp0_4baseEERKNS_11__wrap_iterIT_EERKNS5_IT0_EE, symObjAddr: 0x7858, symBinAddr: 0x10001EA8C, symSize: 0x40 }
  - { offsetInCU: 0xCFBD, offset: 0x57043, size: 0x8, addend: 0x0, symName: __ZNSt3__1miB8ue170006IPKcS2_EEDTmicldtfp_4baseEcldtfp0_4baseEERKNS_11__wrap_iterIT_EERKNS4_IT0_EE, symObjAddr: 0x7898, symBinAddr: 0x10001EACC, symSize: 0x40 }
  - { offsetInCU: 0xD009, offset: 0x5708F, size: 0x8, addend: 0x0, symName: __ZNSt3__112__to_addressB8ue170006INS_12basic_stringIcNS_11char_traitsIcEENS_9allocatorIcEEEEEEPT_S8_, symObjAddr: 0x98A4, symBinAddr: 0x10001F2B4, symSize: 0x14 }
  - { offsetInCU: 0xD03E, offset: 0x570C4, size: 0x8, addend: 0x0, symName: __ZNSt3__18distanceB8ue170006IP9DataPointEENS_15iterator_traitsIT_E15difference_typeES4_S4_, symObjAddr: 0x9CB0, symBinAddr: 0x10001F6C0, symSize: 0x2C }
  - { offsetInCU: 0xD081, offset: 0x57107, size: 0x8, addend: 0x0, symName: __ZNSt3__14nextB8ue170006IP9DataPointEENS_9enable_ifIXsr29__has_input_iterator_categoryIT_EE5valueES4_E4typeES4_NS_15iterator_traitsIS4_E15difference_typeE, symObjAddr: 0x9CDC, symBinAddr: 0x10001F6EC, symSize: 0x34 }
  - { offsetInCU: 0xD0C4, offset: 0x5714A, size: 0x8, addend: 0x0, symName: __ZNSt3__14copyB8ue170006IP9DataPointS2_EET0_T_S4_S3_, symObjAddr: 0x9D10, symBinAddr: 0x10001F720, symSize: 0x40 }
  - { offsetInCU: 0xD11E, offset: 0x571A4, size: 0x8, addend: 0x0, symName: __ZNSt3__16__copyB8ue170006INS_17_ClassicAlgPolicyEP9DataPointS3_S3_EENS_4pairIT0_T2_EES5_T1_S6_, symObjAddr: 0x9DDC, symBinAddr: 0x10001F7EC, symSize: 0x44 }
  - { offsetInCU: 0xD18A, offset: 0x57210, size: 0x8, addend: 0x0, symName: __ZNSt3__121__convert_to_integralB8ue170006El, symObjAddr: 0x9FEC, symBinAddr: 0x10001F9FC, symSize: 0x14 }
  - { offsetInCU: 0xD1B6, offset: 0x5723C, size: 0x8, addend: 0x0, symName: __ZNSt3__19__advanceB8ue170006IP9DataPointEEvRT_NS_15iterator_traitsIS3_E15difference_typeENS_26random_access_iterator_tagE, symObjAddr: 0xA000, symBinAddr: 0x10001FA10, symSize: 0x30 }
  - { offsetInCU: 0xD201, offset: 0x57287, size: 0x8, addend: 0x0, symName: __ZNSt3__130__uninitialized_allocator_copyB8ue170006INS_9allocatorI9DataPointEEPS2_S4_S4_EET2_RT_T0_T1_S5_, symObjAddr: 0xA030, symBinAddr: 0x10001FA40, symSize: 0x80 }
  - { offsetInCU: 0xD29E, offset: 0x57324, size: 0x8, addend: 0x0, symName: __ZNSt3__114__unwrap_rangeB8ue170006IP9DataPointS2_EENS_4pairIT0_S4_EET_S6_, symObjAddr: 0xA0B0, symBinAddr: 0x10001FAC0, symSize: 0x60 }
  - { offsetInCU: 0xD2EA, offset: 0x57370, size: 0x8, addend: 0x0, symName: __ZNSt3__135__uninitialized_allocator_copy_implB8ue170006INS_9allocatorI9DataPointEES2_S2_S2_LPv0EEEPT2_RT_PT0_SA_S6_, symObjAddr: 0xA110, symBinAddr: 0x10001FB20, symSize: 0x38 }
  - { offsetInCU: 0xD36B, offset: 0x573F1, size: 0x8, addend: 0x0, symName: __ZNSt3__113__unwrap_iterB8ue170006IP9DataPointNS_18__unwrap_iter_implIS2_Lb1EEELi0EEEDTclsrT0_8__unwrapclsr3stdE7declvalIT_EEEES6_, symObjAddr: 0xA148, symBinAddr: 0x10001FB58, symSize: 0x24 }
  - { offsetInCU: 0xD3AF, offset: 0x57435, size: 0x8, addend: 0x0, symName: __ZNSt3__113__rewrap_iterB8ue170006IP9DataPointS2_NS_18__unwrap_iter_implIS2_Lb1EEEEET_S5_T0_, symObjAddr: 0xA16C, symBinAddr: 0x10001FB7C, symSize: 0x3C }
  - { offsetInCU: 0xD404, offset: 0x5748A, size: 0x8, addend: 0x0, symName: __ZNSt3__19make_pairB8ue170006IP9DataPointS2_EENS_4pairINS_18__unwrap_ref_decayIT_E4typeENS4_IT0_E4typeEEEOS5_OS8_, symObjAddr: 0xA1A8, symBinAddr: 0x10001FBB8, symSize: 0x38 }
  - { offsetInCU: 0xD5A9, offset: 0x5762F, size: 0x8, addend: 0x0, symName: __ZNSt3__123__dispatch_copy_or_moveB8ue170006INS_17_ClassicAlgPolicyENS_11__copy_loopIS1_EENS_14__copy_trivialEP9DataPointS6_S6_EENS_4pairIT2_T4_EES8_T3_S9_, symObjAddr: 0xA2CC, symBinAddr: 0x10001FCDC, symSize: 0x44 }
  - { offsetInCU: 0xD627, offset: 0x576AD, size: 0x8, addend: 0x0, symName: __ZNSt3__121__unwrap_and_dispatchB8ue170006INS_10__overloadINS_11__copy_loopINS_17_ClassicAlgPolicyEEENS_14__copy_trivialEEEP9DataPointS8_S8_Li0EEENS_4pairIT0_T2_EESA_T1_SB_, symObjAddr: 0xA310, symBinAddr: 0x10001FD20, symSize: 0xB4 }
  - { offsetInCU: 0xD737, offset: 0x577BD, size: 0x8, addend: 0x0, symName: __ZNSt3__114__rewrap_rangeB8ue170006IP9DataPointS2_EET_S3_T0_, symObjAddr: 0xA40C, symBinAddr: 0x10001FE1C, symSize: 0x2C }
  - { offsetInCU: 0xD783, offset: 0x57809, size: 0x8, addend: 0x0, symName: __ZNSt3__119__copy_trivial_implB8ue170006I9DataPointS1_EENS_4pairIPT_PT0_EES4_S4_S6_, symObjAddr: 0xA438, symBinAddr: 0x10001FE48, symSize: 0x88 }
  - { offsetInCU: 0xD7EB, offset: 0x57871, size: 0x8, addend: 0x0, symName: __ZNSt3__119__constexpr_memmoveB8ue170006I9DataPointS1_Li0EEEPT_S3_PT0_NS_15__element_countE, symObjAddr: 0xA4C0, symBinAddr: 0x10001FED0, symSize: 0x68 }
  - { offsetInCU: 0xD859, offset: 0x578DF, size: 0x8, addend: 0x0, symName: __ZNSt3__19make_pairB8ue170006IRP9DataPointS2_EENS_4pairINS_18__unwrap_ref_decayIT_E4typeENS5_IT0_E4typeEEEOS6_OS9_, symObjAddr: 0xA528, symBinAddr: 0x10001FF38, symSize: 0x38 }
  - { offsetInCU: 0xD8A8, offset: 0x5792E, size: 0x8, addend: 0x0, symName: __ZNSt3__110__distanceB8ue170006IP9DataPointEENS_15iterator_traitsIT_E15difference_typeES4_S4_NS_26random_access_iterator_tagE, symObjAddr: 0xA6E4, symBinAddr: 0x1000200F4, symSize: 0x28 }
  - { offsetInCU: 0xD8F6, offset: 0x5797C, size: 0x8, addend: 0x0, symName: __ZNSt3__122__make_exception_guardB8ue170006INS_6vectorIP19MouseCallbackParamsNS_9allocatorIS3_EEE16__destroy_vectorEEENS_28__exception_guard_exceptionsIT_EES9_, symObjAddr: 0xA900, symBinAddr: 0x100020310, symSize: 0x40 }
  - { offsetInCU: 0xD92B, offset: 0x579B1, size: 0x8, addend: 0x0, symName: __ZNSt3__130__uninitialized_allocator_copyB8ue170006INS_9allocatorIP19MouseCallbackParamsEEPS3_S5_S5_EET2_RT_T0_T1_S6_, symObjAddr: 0xAB6C, symBinAddr: 0x100020528, symSize: 0x80 }
  - { offsetInCU: 0xD9C8, offset: 0x57A4E, size: 0x8, addend: 0x0, symName: __ZNSt3__114__unwrap_rangeB8ue170006IPP19MouseCallbackParamsS3_EENS_4pairIT0_S5_EET_S7_, symObjAddr: 0xABEC, symBinAddr: 0x1000205A8, symSize: 0x60 }
  - { offsetInCU: 0xDA14, offset: 0x57A9A, size: 0x8, addend: 0x0, symName: __ZNSt3__135__uninitialized_allocator_copy_implB8ue170006INS_9allocatorIP19MouseCallbackParamsEES3_S3_S3_LPv0EEEPT2_RT_PT0_SB_S7_, symObjAddr: 0xAC4C, symBinAddr: 0x100020608, symSize: 0x38 }
  - { offsetInCU: 0xDA95, offset: 0x57B1B, size: 0x8, addend: 0x0, symName: __ZNSt3__113__unwrap_iterB8ue170006IPP19MouseCallbackParamsNS_18__unwrap_iter_implIS3_Lb1EEELi0EEEDTclsrT0_8__unwrapclsr3stdE7declvalIT_EEEES7_, symObjAddr: 0xAC84, symBinAddr: 0x100020640, symSize: 0x24 }
  - { offsetInCU: 0xDAD9, offset: 0x57B5F, size: 0x8, addend: 0x0, symName: __ZNSt3__113__rewrap_iterB8ue170006IPP19MouseCallbackParamsS3_NS_18__unwrap_iter_implIS3_Lb1EEEEET_S6_T0_, symObjAddr: 0xACA8, symBinAddr: 0x100020664, symSize: 0x3C }
  - { offsetInCU: 0xDB2E, offset: 0x57BB4, size: 0x8, addend: 0x0, symName: __ZNSt3__19make_pairB8ue170006IPP19MouseCallbackParamsS3_EENS_4pairINS_18__unwrap_ref_decayIT_E4typeENS5_IT0_E4typeEEEOS6_OS9_, symObjAddr: 0xACE4, symBinAddr: 0x1000206A0, symSize: 0x38 }
  - { offsetInCU: 0xDC80, offset: 0x57D06, size: 0x8, addend: 0x0, symName: __ZNSt3__14copyB8ue170006IPP19MouseCallbackParamsS3_EET0_T_S5_S4_, symObjAddr: 0xAD8C, symBinAddr: 0x100020748, symSize: 0x40 }
  - { offsetInCU: 0xDCDA, offset: 0x57D60, size: 0x8, addend: 0x0, symName: __ZNSt3__16__copyB8ue170006INS_17_ClassicAlgPolicyEPP19MouseCallbackParamsS4_S4_EENS_4pairIT0_T2_EES6_T1_S7_, symObjAddr: 0xADCC, symBinAddr: 0x100020788, symSize: 0x44 }
  - { offsetInCU: 0xDD46, offset: 0x57DCC, size: 0x8, addend: 0x0, symName: __ZNSt3__123__dispatch_copy_or_moveB8ue170006INS_17_ClassicAlgPolicyENS_11__copy_loopIS1_EENS_14__copy_trivialEPP19MouseCallbackParamsS7_S7_EENS_4pairIT2_T4_EES9_T3_SA_, symObjAddr: 0xAE10, symBinAddr: 0x1000207CC, symSize: 0x44 }
  - { offsetInCU: 0xDDC4, offset: 0x57E4A, size: 0x8, addend: 0x0, symName: __ZNSt3__121__unwrap_and_dispatchB8ue170006INS_10__overloadINS_11__copy_loopINS_17_ClassicAlgPolicyEEENS_14__copy_trivialEEEPP19MouseCallbackParamsS9_S9_Li0EEENS_4pairIT0_T2_EESB_T1_SC_, symObjAddr: 0xAE54, symBinAddr: 0x100020810, symSize: 0xB4 }
  - { offsetInCU: 0xDE52, offset: 0x57ED8, size: 0x8, addend: 0x0, symName: __ZNSt3__114__rewrap_rangeB8ue170006IPP19MouseCallbackParamsS3_EET_S4_T0_, symObjAddr: 0xAF50, symBinAddr: 0x10002090C, symSize: 0x2C }
  - { offsetInCU: 0xDE9E, offset: 0x57F24, size: 0x8, addend: 0x0, symName: __ZNSt3__119__copy_trivial_implB8ue170006IP19MouseCallbackParamsS2_EENS_4pairIPT_PT0_EES5_S5_S7_, symObjAddr: 0xAF7C, symBinAddr: 0x100020938, symSize: 0x80 }
  - { offsetInCU: 0xDF06, offset: 0x57F8C, size: 0x8, addend: 0x0, symName: __ZNSt3__119__constexpr_memmoveB8ue170006IP19MouseCallbackParamsS2_Li0EEEPT_S4_PT0_NS_15__element_countE, symObjAddr: 0xAFFC, symBinAddr: 0x1000209B8, symSize: 0x64 }
  - { offsetInCU: 0xDF74, offset: 0x57FFA, size: 0x8, addend: 0x0, symName: __ZNSt3__19make_pairB8ue170006IRPP19MouseCallbackParamsS3_EENS_4pairINS_18__unwrap_ref_decayIT_E4typeENS6_IT0_E4typeEEEOS7_OSA_, symObjAddr: 0xB060, symBinAddr: 0x100020A1C, symSize: 0x38 }
  - { offsetInCU: 0xE4B9, offset: 0x5853F, size: 0x8, addend: 0x0, symName: __ZN2cvlsIiEERNSt3__113basic_ostreamIcNS1_11char_traitsIcEEEES6_RKNS_6Point_IT_EE, symObjAddr: 0x510, symBinAddr: 0x100019EEC, symSize: 0x64 }
  - { offsetInCU: 0xE4FD, offset: 0x58583, size: 0x8, addend: 0x0, symName: __ZN2cvlsIfEERNSt3__113basic_ostreamIcNS1_11char_traitsIcEEEES6_RKNS_7Point3_IT_EE, symObjAddr: 0x1C58, symBinAddr: 0x10001B04C, symSize: 0x7C }
  - { offsetInCU: 0xE96B, offset: 0x589F1, size: 0x8, addend: 0x0, symName: __ZNSt3__16vectorIP19MouseCallbackParamsNS_9allocatorIS2_EEE26__swap_out_circular_bufferERNS_14__split_bufferIS2_RS4_EE, symObjAddr: 0x4CC4, symBinAddr: 0x10001C41C, symSize: 0x110 }
  - { offsetInCU: 0xE9C2, offset: 0x58A48, size: 0x8, addend: 0x0, symName: __ZNSt3__16vectorI9DataPointNS_9allocatorIS1_EEE26__swap_out_circular_bufferERNS_14__split_bufferIS1_RS3_EE, symObjAddr: 0x650C, symBinAddr: 0x10001D740, symSize: 0x110 }
  - { offsetInCU: 0x10CFE, offset: 0x5AD84, size: 0x8, addend: 0x0, symName: __ZN13ControlPoints11writeToFileENSt3__16vectorIP19MouseCallbackParamsNS0_9allocatorIS3_EEEE, symObjAddr: 0x0, symBinAddr: 0x100019C40, symSize: 0x200 }
  - { offsetInCU: 0x10E37, offset: 0x5AEBD, size: 0x8, addend: 0x0, symName: __ZNSt3__16vectorIP19MouseCallbackParamsNS_9allocatorIS2_EEE5beginB8ue170006Ev, symObjAddr: 0x2E8, symBinAddr: 0x100019E40, symSize: 0x30 }
  - { offsetInCU: 0x10E5F, offset: 0x5AEE5, size: 0x8, addend: 0x0, symName: __ZNSt3__16vectorIP19MouseCallbackParamsNS_9allocatorIS2_EEE3endB8ue170006Ev, symObjAddr: 0x318, symBinAddr: 0x100019E70, symSize: 0x30 }
  - { offsetInCU: 0x10E87, offset: 0x5AF0D, size: 0x8, addend: 0x0, symName: __ZNKSt3__111__wrap_iterIPP19MouseCallbackParamsEdeB8ue170006Ev, symObjAddr: 0x37C, symBinAddr: 0x100019ED4, symSize: 0x18 }
  - { offsetInCU: 0x10EAD, offset: 0x5AF33, size: 0x8, addend: 0x0, symName: __ZNSt3__111__wrap_iterIPP19MouseCallbackParamsEppB8ue170006Ev, symObjAddr: 0x594, symBinAddr: 0x100019F50, symSize: 0x20 }
  - { offsetInCU: 0x10ED8, offset: 0x5AF5E, size: 0x8, addend: 0x0, symName: __ZN13ControlPoints12readFromFileERNSt3__16vectorIP19MouseCallbackParamsNS0_9allocatorIS3_EEEE, symObjAddr: 0x64C, symBinAddr: 0x100019F70, symSize: 0x4BC }
  - { offsetInCU: 0x1102B, offset: 0x5B0B1, size: 0x8, addend: 0x0, symName: __ZN9DataPointC1Ev, symObjAddr: 0xC48, symBinAddr: 0x10001A42C, symSize: 0x2C }
  - { offsetInCU: 0x11057, offset: 0x5B0DD, size: 0x8, addend: 0x0, symName: __ZNSt3__16vectorIP19MouseCallbackParamsNS_9allocatorIS2_EEE9push_backB8ue170006ERKS2_, symObjAddr: 0xCD0, symBinAddr: 0x10001A458, symSize: 0x6C }
  - { offsetInCU: 0x1108E, offset: 0x5B114, size: 0x8, addend: 0x0, symName: __ZNSt3__16vectorI9DataPointNS_9allocatorIS1_EEE9push_backB8ue170006ERKS1_, symObjAddr: 0xD3C, symBinAddr: 0x10001A4C4, symSize: 0x6C }
  - { offsetInCU: 0x110C5, offset: 0x5B14B, size: 0x8, addend: 0x0, symName: __ZNSt3__112basic_stringIcNS_11char_traitsIcEENS_9allocatorIcEEE5eraseB8ue170006ENS_11__wrap_iterIPKcEES9_, symObjAddr: 0xDA8, symBinAddr: 0x10001A530, symSize: 0x98 }
  - { offsetInCU: 0x11129, offset: 0x5B1AF, size: 0x8, addend: 0x0, symName: __ZNSt3__112basic_stringIcNS_11char_traitsIcEENS_9allocatorIcEEE5beginB8ue170006Ev, symObjAddr: 0xF48, symBinAddr: 0x10001A6D0, symSize: 0x4C }
  - { offsetInCU: 0x1114F, offset: 0x5B1D5, size: 0x8, addend: 0x0, symName: __ZNSt3__112basic_stringIcNS_11char_traitsIcEENS_9allocatorIcEEE3endB8ue170006Ev, symObjAddr: 0xF94, symBinAddr: 0x10001A71C, symSize: 0x54 }
  - { offsetInCU: 0x1117F, offset: 0x5B205, size: 0x8, addend: 0x0, symName: __ZNSt3__111__wrap_iterIPKcEC1B8ue170006IPcEERKNS0_IT_EEPNS_9enable_ifIXsr14is_convertibleIS6_S2_EE5valueEvE4typeE, symObjAddr: 0xFE8, symBinAddr: 0x10001A770, symSize: 0x3C }
  - { offsetInCU: 0x11225, offset: 0x5B2AB, size: 0x8, addend: 0x0, symName: __ZN13ControlPoints15readXYZFromFileERNSt3__16vectorIN2cv7Point3_IfEENS0_9allocatorIS4_EEEE, symObjAddr: 0x1230, symBinAddr: 0x10001A7AC, symSize: 0x20C }
  - { offsetInCU: 0x112E3, offset: 0x5B369, size: 0x8, addend: 0x0, symName: __ZNSt3__16vectorIN2cv7Point3_IfEENS_9allocatorIS3_EEE9push_backB8ue170006EOS3_, symObjAddr: 0x1470, symBinAddr: 0x10001A9B8, symSize: 0x6C }
  - { offsetInCU: 0x1131A, offset: 0x5B3A0, size: 0x8, addend: 0x0, symName: __ZN2cv7Point3_IfEC1Efff, symObjAddr: 0x14DC, symBinAddr: 0x10001AA24, symSize: 0x44 }
  - { offsetInCU: 0x11373, offset: 0x5B3F9, size: 0x8, addend: 0x0, symName: __ZN13ControlPoints7onMouseEiiiiPv, symObjAddr: 0x1520, symBinAddr: 0x10001AA68, symSize: 0x2F4 }
  - { offsetInCU: 0x11420, offset: 0x5B4A6, size: 0x8, addend: 0x0, symName: __ZN13ControlPoints18printControlPixelsERNSt3__16vectorIP19MouseCallbackParamsNS0_9allocatorIS3_EEEE, symObjAddr: 0x1968, symBinAddr: 0x10001AD5C, symSize: 0x17C }
  - { offsetInCU: 0x114FC, offset: 0x5B582, size: 0x8, addend: 0x0, symName: __ZN13ControlPoints15printControlXYZERNSt3__16vectorIN2cv7Point3_IfEENS0_9allocatorIS4_EEEE, symObjAddr: 0x1AE4, symBinAddr: 0x10001AED8, symSize: 0xC8 }
  - { offsetInCU: 0x11585, offset: 0x5B60B, size: 0x8, addend: 0x0, symName: __ZNSt3__16vectorIN2cv7Point3_IfEENS_9allocatorIS3_EEE5beginB8ue170006Ev, symObjAddr: 0x1BAC, symBinAddr: 0x10001AFA0, symSize: 0x30 }
  - { offsetInCU: 0x115AD, offset: 0x5B633, size: 0x8, addend: 0x0, symName: __ZNSt3__16vectorIN2cv7Point3_IfEENS_9allocatorIS3_EEE3endB8ue170006Ev, symObjAddr: 0x1BDC, symBinAddr: 0x10001AFD0, symSize: 0x30 }
  - { offsetInCU: 0x115D5, offset: 0x5B65B, size: 0x8, addend: 0x0, symName: __ZNKSt3__111__wrap_iterIPN2cv7Point3_IfEEEdeB8ue170006Ev, symObjAddr: 0x1C40, symBinAddr: 0x10001B034, symSize: 0x18 }
  - { offsetInCU: 0x115FB, offset: 0x5B681, size: 0x8, addend: 0x0, symName: __ZNSt3__111__wrap_iterIPN2cv7Point3_IfEEEppB8ue170006Ev, symObjAddr: 0x1CD4, symBinAddr: 0x10001B0C8, symSize: 0x20 }
  - { offsetInCU: 0x11621, offset: 0x5B6A7, size: 0x8, addend: 0x0, symName: __ZN13ControlPoints20processControlPointsERKNSt3__112basic_stringIcNS0_11char_traitsIcEENS0_9allocatorIcEEEERNS0_6vectorIP19MouseCallbackParamsNS4_ISB_EEEERNS9_IN2cv7Point3_IfEENS4_ISH_EEEEi, symObjAddr: 0x1CF4, symBinAddr: 0x10001B0E8, symSize: 0x584 }
  - { offsetInCU: 0x117AD, offset: 0x5B833, size: 0x8, addend: 0x0, symName: __ZNSt3__16vectorINS_12basic_stringIcNS_11char_traitsIcEENS_9allocatorIcEEEENS4_IS6_EEEC1B8ue170006Ev, symObjAddr: 0x2278, symBinAddr: 0x10001B66C, symSize: 0x2C }
  - { offsetInCU: 0x117D7, offset: 0x5B85D, size: 0x8, addend: 0x0, symName: __ZNSt3__16vectorINS_12basic_stringIcNS_11char_traitsIcEENS_9allocatorIcEEEENS4_IS6_EEE5beginB8ue170006Ev, symObjAddr: 0x22A4, symBinAddr: 0x10001B698, symSize: 0x30 }
  - { offsetInCU: 0x117FF, offset: 0x5B885, size: 0x8, addend: 0x0, symName: __ZNSt3__16vectorINS_12basic_stringIcNS_11char_traitsIcEENS_9allocatorIcEEEENS4_IS6_EEE3endB8ue170006Ev, symObjAddr: 0x22D4, symBinAddr: 0x10001B6C8, symSize: 0x30 }
  - { offsetInCU: 0x11827, offset: 0x5B8AD, size: 0x8, addend: 0x0, symName: __ZNKSt3__111__wrap_iterIPNS_12basic_stringIcNS_11char_traitsIcEENS_9allocatorIcEEEEEdeB8ue170006Ev, symObjAddr: 0x2338, symBinAddr: 0x10001B72C, symSize: 0x18 }
  - { offsetInCU: 0x1184D, offset: 0x5B8D3, size: 0x8, addend: 0x0, symName: __ZNSt3__16vectorI9DataPointNS_9allocatorIS1_EEEaSB8ue170006ERKS4_, symObjAddr: 0x237C, symBinAddr: 0x10001B744, symSize: 0x68 }
  - { offsetInCU: 0x11884, offset: 0x5B90A, size: 0x8, addend: 0x0, symName: __ZNSt3__16vectorI9DataPointNS_9allocatorIS1_EEED1B8ue170006Ev, symObjAddr: 0x23E4, symBinAddr: 0x10001B7AC, symSize: 0x2C }
  - { offsetInCU: 0x118AE, offset: 0x5B934, size: 0x8, addend: 0x0, symName: __ZNSt3__111__wrap_iterIPNS_12basic_stringIcNS_11char_traitsIcEENS_9allocatorIcEEEEEppB8ue170006Ev, symObjAddr: 0x2410, symBinAddr: 0x10001B7D8, symSize: 0x20 }
  - { offsetInCU: 0x118D4, offset: 0x5B95A, size: 0x8, addend: 0x0, symName: __ZNSt3__16vectorIP19MouseCallbackParamsNS_9allocatorIS2_EEEC1ERKS5_, symObjAddr: 0x2430, symBinAddr: 0x10001B7F8, symSize: 0x34 }
  - { offsetInCU: 0x1190F, offset: 0x5B995, size: 0x8, addend: 0x0, symName: __ZNSt3__16vectorINS_12basic_stringIcNS_11char_traitsIcEENS_9allocatorIcEEEENS4_IS6_EEED1B8ue170006Ev, symObjAddr: 0x2490, symBinAddr: 0x10001B82C, symSize: 0x2C }
  - { offsetInCU: 0x11939, offset: 0x5B9BF, size: 0x8, addend: 0x0, symName: __ZNKSt3__111__wrap_iterIPP19MouseCallbackParamsE4baseB8ue170006Ev, symObjAddr: 0x2504, symBinAddr: 0x10001B8A0, symSize: 0x18 }
  - { offsetInCU: 0x1195F, offset: 0x5B9E5, size: 0x8, addend: 0x0, symName: __ZN9DataPointC2Ev, symObjAddr: 0x264C, symBinAddr: 0x10001B8B8, symSize: 0x2C }
  - { offsetInCU: 0x1198B, offset: 0x5BA11, size: 0x8, addend: 0x0, symName: __ZN2cv6Point_IiEC1Ev, symObjAddr: 0x2678, symBinAddr: 0x10001B8E4, symSize: 0x2C }
  - { offsetInCU: 0x119B7, offset: 0x5BA3D, size: 0x8, addend: 0x0, symName: __ZN2cv6Point_IiEC2Ev, symObjAddr: 0x26A4, symBinAddr: 0x10001B910, symSize: 0x1C }
  - { offsetInCU: 0x119E8, offset: 0x5BA6E, size: 0x8, addend: 0x0, symName: __ZNKSt3__111__wrap_iterIPN2cv7Point3_IfEEE4baseB8ue170006Ev, symObjAddr: 0x2AC4, symBinAddr: 0x10001B974, symSize: 0x18 }
  - { offsetInCU: 0x11A0E, offset: 0x5BA94, size: 0x8, addend: 0x0, symName: __ZNKSt3__111__wrap_iterIPNS_12basic_stringIcNS_11char_traitsIcEENS_9allocatorIcEEEEE4baseB8ue170006Ev, symObjAddr: 0x2B24, symBinAddr: 0x10001B9D4, symSize: 0x18 }
  - { offsetInCU: 0x11A34, offset: 0x5BABA, size: 0x8, addend: 0x0, symName: __ZNSt3__112basic_stringIcNS_11char_traitsIcEENS_9allocatorIcEEE15__make_iteratorB8ue170006EPc, symObjAddr: 0x2B3C, symBinAddr: 0x10001B9EC, symSize: 0x30 }
  - { offsetInCU: 0x11A69, offset: 0x5BAEF, size: 0x8, addend: 0x0, symName: __ZNSt3__112basic_stringIcNS_11char_traitsIcEENS_9allocatorIcEEE13__get_pointerB8ue170006Ev, symObjAddr: 0x2B6C, symBinAddr: 0x10001BA1C, symSize: 0x54 }
  - { offsetInCU: 0x11A8F, offset: 0x5BB15, size: 0x8, addend: 0x0, symName: __ZNSt3__111__wrap_iterIPcEC1B8ue170006ES1_, symObjAddr: 0x2BCC, symBinAddr: 0x10001BA70, symSize: 0x34 }
  - { offsetInCU: 0x11AC7, offset: 0x5BB4D, size: 0x8, addend: 0x0, symName: __ZNSt3__111__wrap_iterIPcEC2B8ue170006ES1_, symObjAddr: 0x2C00, symBinAddr: 0x10001BAA4, symSize: 0x20 }
  - { offsetInCU: 0x11B22, offset: 0x5BBA8, size: 0x8, addend: 0x0, symName: __ZNSt3__16vectorIP19MouseCallbackParamsNS_9allocatorIS2_EEE11__make_iterB8ue170006EPS2_, symObjAddr: 0x39B4, symBinAddr: 0x10001BAC4, symSize: 0x30 }
  - { offsetInCU: 0x11B57, offset: 0x5BBDD, size: 0x8, addend: 0x0, symName: __ZNSt3__111__wrap_iterIPP19MouseCallbackParamsEC1B8ue170006ES3_, symObjAddr: 0x39E4, symBinAddr: 0x10001BAF4, symSize: 0x34 }
  - { offsetInCU: 0x11B8F, offset: 0x5BC15, size: 0x8, addend: 0x0, symName: __ZNSt3__111__wrap_iterIPP19MouseCallbackParamsEC2B8ue170006ES3_, symObjAddr: 0x3A18, symBinAddr: 0x10001BB28, symSize: 0x20 }
  - { offsetInCU: 0x11BCC, offset: 0x5BC52, size: 0x8, addend: 0x0, symName: __ZNSt3__16vectorI9DataPointNS_9allocatorIS1_EEED2B8ue170006Ev, symObjAddr: 0x3C70, symBinAddr: 0x10001BB48, symSize: 0x44 }
  - { offsetInCU: 0x11BF6, offset: 0x5BC7C, size: 0x8, addend: 0x0, symName: __ZNSt3__16vectorI9DataPointNS_9allocatorIS1_EEE16__destroy_vectorC1B8ue170006ERS4_, symObjAddr: 0x3CB4, symBinAddr: 0x10001BB8C, symSize: 0x34 }
  - { offsetInCU: 0x11C2F, offset: 0x5BCB5, size: 0x8, addend: 0x0, symName: __ZNSt3__16vectorI9DataPointNS_9allocatorIS1_EEE16__destroy_vectorclB8ue170006Ev, symObjAddr: 0x3CE8, symBinAddr: 0x10001BBC0, symSize: 0x90 }
  - { offsetInCU: 0x11C55, offset: 0x5BCDB, size: 0x8, addend: 0x0, symName: __ZNSt3__16vectorI9DataPointNS_9allocatorIS1_EEE16__destroy_vectorC2B8ue170006ERS4_, symObjAddr: 0x3D78, symBinAddr: 0x10001BC50, symSize: 0x20 }
  - { offsetInCU: 0x11C8E, offset: 0x5BD14, size: 0x8, addend: 0x0, symName: __ZNSt3__16vectorI9DataPointNS_9allocatorIS1_EEE7__clearB8ue170006Ev, symObjAddr: 0x3D98, symBinAddr: 0x10001BC70, symSize: 0x28 }
  - { offsetInCU: 0x11CB4, offset: 0x5BD3A, size: 0x8, addend: 0x0, symName: __ZNKSt3__16vectorI9DataPointNS_9allocatorIS1_EEE17__annotate_deleteB8ue170006Ev, symObjAddr: 0x3DC0, symBinAddr: 0x10001BC98, symSize: 0xD4 }
  - { offsetInCU: 0x11CDA, offset: 0x5BD60, size: 0x8, addend: 0x0, symName: __ZNSt3__116allocator_traitsINS_9allocatorI9DataPointEEE10deallocateB8ue170006ERS3_PS2_m, symObjAddr: 0x3E94, symBinAddr: 0x10001BD6C, symSize: 0x34 }
  - { offsetInCU: 0x11D1C, offset: 0x5BDA2, size: 0x8, addend: 0x0, symName: __ZNSt3__16vectorI9DataPointNS_9allocatorIS1_EEE7__allocB8ue170006Ev, symObjAddr: 0x3EC8, symBinAddr: 0x10001BDA0, symSize: 0x28 }
  - { offsetInCU: 0x11D42, offset: 0x5BDC8, size: 0x8, addend: 0x0, symName: __ZNKSt3__16vectorI9DataPointNS_9allocatorIS1_EEE8capacityB8ue170006Ev, symObjAddr: 0x3EF0, symBinAddr: 0x10001BDC8, symSize: 0x40 }
  - { offsetInCU: 0x11D68, offset: 0x5BDEE, size: 0x8, addend: 0x0, symName: __ZNSt3__16vectorI9DataPointNS_9allocatorIS1_EEE22__base_destruct_at_endB8ue170006EPS1_, symObjAddr: 0x3F30, symBinAddr: 0x10001BE08, symSize: 0x8C }
  - { offsetInCU: 0x11DAC, offset: 0x5BE32, size: 0x8, addend: 0x0, symName: __ZNSt3__116allocator_traitsINS_9allocatorI9DataPointEEE7destroyB8ue170006IS2_vEEvRS3_PT_, symObjAddr: 0x3FBC, symBinAddr: 0x10001BE94, symSize: 0x2C }
  - { offsetInCU: 0x11DE9, offset: 0x5BE6F, size: 0x8, addend: 0x0, symName: __ZNSt3__19allocatorI9DataPointE7destroyB8ue170006EPS1_, symObjAddr: 0x3FFC, symBinAddr: 0x10001BED4, symSize: 0x14 }
  - { offsetInCU: 0x11E1D, offset: 0x5BEA3, size: 0x8, addend: 0x0, symName: __ZNKSt3__16vectorI9DataPointNS_9allocatorIS1_EEE31__annotate_contiguous_containerB8ue170006EPKvS6_S6_S6_, symObjAddr: 0x4010, symBinAddr: 0x10001BEE8, symSize: 0x20 }
  - { offsetInCU: 0x11E6F, offset: 0x5BEF5, size: 0x8, addend: 0x0, symName: __ZNKSt3__16vectorI9DataPointNS_9allocatorIS1_EEE4dataB8ue170006Ev, symObjAddr: 0x4030, symBinAddr: 0x10001BF08, symSize: 0x28 }
  - { offsetInCU: 0x11E95, offset: 0x5BF1B, size: 0x8, addend: 0x0, symName: __ZNKSt3__16vectorI9DataPointNS_9allocatorIS1_EEE4sizeB8ue170006Ev, symObjAddr: 0x4058, symBinAddr: 0x10001BF30, symSize: 0x28 }
  - { offsetInCU: 0x11EBB, offset: 0x5BF41, size: 0x8, addend: 0x0, symName: __ZNSt3__19allocatorI9DataPointE10deallocateB8ue170006EPS1_m, symObjAddr: 0x4080, symBinAddr: 0x10001BF58, symSize: 0x44 }
  - { offsetInCU: 0x11EFD, offset: 0x5BF83, size: 0x8, addend: 0x0, symName: __ZNSt3__117__compressed_pairIP9DataPointNS_9allocatorIS1_EEE6secondB8ue170006Ev, symObjAddr: 0x4140, symBinAddr: 0x10001BF9C, symSize: 0x24 }
  - { offsetInCU: 0x11F23, offset: 0x5BFA9, size: 0x8, addend: 0x0, symName: __ZNSt3__122__compressed_pair_elemINS_9allocatorI9DataPointEELi1ELb1EE5__getB8ue170006Ev, symObjAddr: 0x4164, symBinAddr: 0x10001BFC0, symSize: 0x14 }
  - { offsetInCU: 0x11F49, offset: 0x5BFCF, size: 0x8, addend: 0x0, symName: __ZNKSt3__16vectorI9DataPointNS_9allocatorIS1_EEE9__end_capB8ue170006Ev, symObjAddr: 0x4178, symBinAddr: 0x10001BFD4, symSize: 0x28 }
  - { offsetInCU: 0x11F6F, offset: 0x5BFF5, size: 0x8, addend: 0x0, symName: __ZNKSt3__117__compressed_pairIP9DataPointNS_9allocatorIS1_EEE5firstB8ue170006Ev, symObjAddr: 0x41A0, symBinAddr: 0x10001BFFC, symSize: 0x24 }
  - { offsetInCU: 0x11F95, offset: 0x5C01B, size: 0x8, addend: 0x0, symName: __ZNKSt3__122__compressed_pair_elemIP9DataPointLi0ELb0EE5__getB8ue170006Ev, symObjAddr: 0x41C4, symBinAddr: 0x10001C020, symSize: 0x14 }
  - { offsetInCU: 0x11FE3, offset: 0x5C069, size: 0x8, addend: 0x0, symName: __ZNSt3__16vectorIP19MouseCallbackParamsNS_9allocatorIS2_EEE9__end_capB8ue170006Ev, symObjAddr: 0x4840, symBinAddr: 0x10001C034, symSize: 0x28 }
  - { offsetInCU: 0x12009, offset: 0x5C08F, size: 0x8, addend: 0x0, symName: __ZNSt3__16vectorIP19MouseCallbackParamsNS_9allocatorIS2_EEE22__construct_one_at_endB8ue170006IJRKS2_EEEvDpOT_, symObjAddr: 0x4868, symBinAddr: 0x10001C05C, symSize: 0x90 }
  - { offsetInCU: 0x12058, offset: 0x5C0DE, size: 0x8, addend: 0x0, symName: __ZNSt3__16vectorIP19MouseCallbackParamsNS_9allocatorIS2_EEE21__push_back_slow_pathIRKS2_EEvOT_, symObjAddr: 0x48F8, symBinAddr: 0x10001C0EC, symSize: 0xD8 }
  - { offsetInCU: 0x120B6, offset: 0x5C13C, size: 0x8, addend: 0x0, symName: __ZNSt3__117__compressed_pairIPP19MouseCallbackParamsNS_9allocatorIS2_EEE5firstB8ue170006Ev, symObjAddr: 0x49D0, symBinAddr: 0x10001C1C4, symSize: 0x24 }
  - { offsetInCU: 0x120DC, offset: 0x5C162, size: 0x8, addend: 0x0, symName: __ZNSt3__122__compressed_pair_elemIPP19MouseCallbackParamsLi0ELb0EE5__getB8ue170006Ev, symObjAddr: 0x49F4, symBinAddr: 0x10001C1E8, symSize: 0x14 }
  - { offsetInCU: 0x1211B, offset: 0x5C1A1, size: 0x8, addend: 0x0, symName: __ZNSt3__16vectorIP19MouseCallbackParamsNS_9allocatorIS2_EEE21_ConstructTransactionC1B8ue170006ERS5_m, symObjAddr: 0x4A08, symBinAddr: 0x10001C1FC, symSize: 0x3C }
  - { offsetInCU: 0x12163, offset: 0x5C1E9, size: 0x8, addend: 0x0, symName: __ZNSt3__116allocator_traitsINS_9allocatorIP19MouseCallbackParamsEEE9constructB8ue170006IS3_JRKS3_EvEEvRS4_PT_DpOT0_, symObjAddr: 0x4A44, symBinAddr: 0x10001C238, symSize: 0x34 }
  - { offsetInCU: 0x121BA, offset: 0x5C240, size: 0x8, addend: 0x0, symName: __ZNSt3__16vectorIP19MouseCallbackParamsNS_9allocatorIS2_EEE21_ConstructTransactionD1B8ue170006Ev, symObjAddr: 0x4AB4, symBinAddr: 0x10001C26C, symSize: 0x2C }
  - { offsetInCU: 0x121E4, offset: 0x5C26A, size: 0x8, addend: 0x0, symName: __ZNSt3__16vectorIP19MouseCallbackParamsNS_9allocatorIS2_EEE21_ConstructTransactionC2B8ue170006ERS5_m, symObjAddr: 0x4AE0, symBinAddr: 0x10001C298, symSize: 0x44 }
  - { offsetInCU: 0x1222C, offset: 0x5C2B2, size: 0x8, addend: 0x0, symName: __ZNSt3__19allocatorIP19MouseCallbackParamsE9constructB8ue170006IS2_JRKS2_EEEvPT_DpOT0_, symObjAddr: 0x4B24, symBinAddr: 0x10001C2DC, symSize: 0x28 }
  - { offsetInCU: 0x12282, offset: 0x5C308, size: 0x8, addend: 0x0, symName: __ZNSt3__16vectorIP19MouseCallbackParamsNS_9allocatorIS2_EEE21_ConstructTransactionD2B8ue170006Ev, symObjAddr: 0x4B84, symBinAddr: 0x10001C304, symSize: 0x20 }
  - { offsetInCU: 0x122AC, offset: 0x5C332, size: 0x8, addend: 0x0, symName: __ZNKSt3__16vectorIP19MouseCallbackParamsNS_9allocatorIS2_EEE11__recommendB8ue170006Em, symObjAddr: 0x4BA4, symBinAddr: 0x10001C324, symSize: 0xB4 }
  - { offsetInCU: 0x12301, offset: 0x5C387, size: 0x8, addend: 0x0, symName: __ZNSt3__114__split_bufferIP19MouseCallbackParamsRNS_9allocatorIS2_EEEC1EmmS5_, symObjAddr: 0x4C80, symBinAddr: 0x10001C3D8, symSize: 0x44 }
  - { offsetInCU: 0x12357, offset: 0x5C3DD, size: 0x8, addend: 0x0, symName: __ZNSt3__114__split_bufferIP19MouseCallbackParamsRNS_9allocatorIS2_EEED1Ev, symObjAddr: 0x4DD4, symBinAddr: 0x10001C52C, symSize: 0x2C }
  - { offsetInCU: 0x12383, offset: 0x5C409, size: 0x8, addend: 0x0, symName: __ZNKSt3__16vectorIP19MouseCallbackParamsNS_9allocatorIS2_EEE8max_sizeEv, symObjAddr: 0x4E00, symBinAddr: 0x10001C558, symSize: 0x60 }
  - { offsetInCU: 0x123AB, offset: 0x5C431, size: 0x8, addend: 0x0, symName: __ZNKSt3__16vectorIP19MouseCallbackParamsNS_9allocatorIS2_EEE20__throw_length_errorB8ue170006Ev, symObjAddr: 0x4E60, symBinAddr: 0x10001C5B8, symSize: 0x1C }
  - { offsetInCU: 0x123DB, offset: 0x5C461, size: 0x8, addend: 0x0, symName: __ZNSt3__116allocator_traitsINS_9allocatorIP19MouseCallbackParamsEEE8max_sizeB8ue170006IS4_vEEmRKS4_, symObjAddr: 0x4F14, symBinAddr: 0x10001C5D4, symSize: 0x24 }
  - { offsetInCU: 0x12409, offset: 0x5C48F, size: 0x8, addend: 0x0, symName: __ZNKSt3__16vectorIP19MouseCallbackParamsNS_9allocatorIS2_EEE7__allocB8ue170006Ev, symObjAddr: 0x4F38, symBinAddr: 0x10001C5F8, symSize: 0x28 }
  - { offsetInCU: 0x1242F, offset: 0x5C4B5, size: 0x8, addend: 0x0, symName: __ZNKSt3__19allocatorIP19MouseCallbackParamsE8max_sizeB8ue170006Ev, symObjAddr: 0x4FFC, symBinAddr: 0x10001C620, symSize: 0x14 }
  - { offsetInCU: 0x12455, offset: 0x5C4DB, size: 0x8, addend: 0x0, symName: __ZNKSt3__117__compressed_pairIPP19MouseCallbackParamsNS_9allocatorIS2_EEE6secondB8ue170006Ev, symObjAddr: 0x5010, symBinAddr: 0x10001C634, symSize: 0x24 }
  - { offsetInCU: 0x1247B, offset: 0x5C501, size: 0x8, addend: 0x0, symName: __ZNKSt3__122__compressed_pair_elemINS_9allocatorIP19MouseCallbackParamsEELi1ELb1EE5__getB8ue170006Ev, symObjAddr: 0x5034, symBinAddr: 0x10001C658, symSize: 0x14 }
  - { offsetInCU: 0x124A1, offset: 0x5C527, size: 0x8, addend: 0x0, symName: __ZNSt3__114__split_bufferIP19MouseCallbackParamsRNS_9allocatorIS2_EEEC2EmmS5_, symObjAddr: 0x51E8, symBinAddr: 0x10001C66C, symSize: 0xD4 }
  - { offsetInCU: 0x12515, offset: 0x5C59B, size: 0x8, addend: 0x0, symName: __ZNSt3__117__compressed_pairIPP19MouseCallbackParamsRNS_9allocatorIS2_EEEC1B8ue170006IDnS6_EEOT_OT0_, symObjAddr: 0x52BC, symBinAddr: 0x10001C740, symSize: 0x3C }
  - { offsetInCU: 0x1256D, offset: 0x5C5F3, size: 0x8, addend: 0x0, symName: __ZNSt3__114__split_bufferIP19MouseCallbackParamsRNS_9allocatorIS2_EEE7__allocB8ue170006Ev, symObjAddr: 0x5338, symBinAddr: 0x10001C7BC, symSize: 0x28 }
  - { offsetInCU: 0x12593, offset: 0x5C619, size: 0x8, addend: 0x0, symName: __ZNSt3__114__split_bufferIP19MouseCallbackParamsRNS_9allocatorIS2_EEE9__end_capB8ue170006Ev, symObjAddr: 0x5360, symBinAddr: 0x10001C7E4, symSize: 0x28 }
  - { offsetInCU: 0x125B9, offset: 0x5C63F, size: 0x8, addend: 0x0, symName: __ZNSt3__117__compressed_pairIPP19MouseCallbackParamsRNS_9allocatorIS2_EEEC2B8ue170006IDnS6_EEOT_OT0_, symObjAddr: 0x5388, symBinAddr: 0x10001C80C, symSize: 0x48 }
  - { offsetInCU: 0x12611, offset: 0x5C697, size: 0x8, addend: 0x0, symName: __ZNSt3__122__compressed_pair_elemIRNS_9allocatorIP19MouseCallbackParamsEELi1ELb0EEC2B8ue170006IS5_vEEOT_, symObjAddr: 0x53EC, symBinAddr: 0x10001C854, symSize: 0x20 }
  - { offsetInCU: 0x12653, offset: 0x5C6D9, size: 0x8, addend: 0x0, symName: __ZNSt3__19allocatorIP19MouseCallbackParamsE8allocateB8ue170006Em, symObjAddr: 0x540C, symBinAddr: 0x10001C874, symSize: 0x58 }
  - { offsetInCU: 0x12687, offset: 0x5C70D, size: 0x8, addend: 0x0, symName: __ZNSt3__117__compressed_pairIPP19MouseCallbackParamsRNS_9allocatorIS2_EEE6secondB8ue170006Ev, symObjAddr: 0x54E4, symBinAddr: 0x10001C8CC, symSize: 0x28 }
  - { offsetInCU: 0x126AD, offset: 0x5C733, size: 0x8, addend: 0x0, symName: __ZNSt3__122__compressed_pair_elemIRNS_9allocatorIP19MouseCallbackParamsEELi1ELb0EE5__getB8ue170006Ev, symObjAddr: 0x550C, symBinAddr: 0x10001C8F4, symSize: 0x18 }
  - { offsetInCU: 0x126D3, offset: 0x5C759, size: 0x8, addend: 0x0, symName: __ZNSt3__117__compressed_pairIPP19MouseCallbackParamsRNS_9allocatorIS2_EEE5firstB8ue170006Ev, symObjAddr: 0x5524, symBinAddr: 0x10001C90C, symSize: 0x24 }
  - { offsetInCU: 0x126F9, offset: 0x5C77F, size: 0x8, addend: 0x0, symName: __ZNSt3__116reverse_iteratorIPP19MouseCallbackParamsEC1B8ue170006ES3_, symObjAddr: 0x5678, symBinAddr: 0x10001C9A8, symSize: 0x34 }
  - { offsetInCU: 0x12731, offset: 0x5C7B7, size: 0x8, addend: 0x0, symName: __ZNKSt3__116reverse_iteratorIPP19MouseCallbackParamsE4baseB8ue170006Ev, symObjAddr: 0x56AC, symBinAddr: 0x10001C9DC, symSize: 0x18 }
  - { offsetInCU: 0x12757, offset: 0x5C7DD, size: 0x8, addend: 0x0, symName: __ZNKSt3__16vectorIP19MouseCallbackParamsNS_9allocatorIS2_EEE14__annotate_newB8ue170006Em, symObjAddr: 0x5700, symBinAddr: 0x10001CA30, symSize: 0xAC }
  - { offsetInCU: 0x127AF, offset: 0x5C835, size: 0x8, addend: 0x0, symName: __ZNKSt3__111__move_loopINS_17_ClassicAlgPolicyEEclB8ue170006INS_16reverse_iteratorIPP19MouseCallbackParamsEES8_S8_EENS_4pairIT_T1_EESA_T0_SB_, symObjAddr: 0x5AE4, symBinAddr: 0x10001CDCC, symSize: 0xA0 }
  - { offsetInCU: 0x1281F, offset: 0x5C8A5, size: 0x8, addend: 0x0, symName: __ZNSt3__18_IterOpsINS_17_ClassicAlgPolicyEE11__iter_moveB8ue170006IRNS_16reverse_iteratorIPP19MouseCallbackParamsEEEENS_9enable_ifIXsr12is_referenceIDTdeclsr3stdE7declvalIRT_EEEEE5valueEDTclsr3stdE4movedeclsr3stdE7declvalISC_EEEEE4typeEOSB_, symObjAddr: 0x5D18, symBinAddr: 0x10001D000, symSize: 0x28 }
  - { offsetInCU: 0x1284B, offset: 0x5C8D1, size: 0x8, addend: 0x0, symName: __ZNKSt3__116reverse_iteratorIPP19MouseCallbackParamsEdeB8ue170006Ev, symObjAddr: 0x5D40, symBinAddr: 0x10001D028, symSize: 0x28 }
  - { offsetInCU: 0x1287F, offset: 0x5C905, size: 0x8, addend: 0x0, symName: __ZNSt3__116reverse_iteratorIPP19MouseCallbackParamsEppB8ue170006Ev, symObjAddr: 0x5D68, symBinAddr: 0x10001D050, symSize: 0x20 }
  - { offsetInCU: 0x128A5, offset: 0x5C92B, size: 0x8, addend: 0x0, symName: __ZNSt3__18_IterOpsINS_17_ClassicAlgPolicyEE25__validate_iter_referenceB8ue170006IRNS_16reverse_iteratorIPP19MouseCallbackParamsEEEEvv, symObjAddr: 0x5D88, symBinAddr: 0x10001D070, symSize: 0x4 }
  - { offsetInCU: 0x128C3, offset: 0x5C949, size: 0x8, addend: 0x0, symName: __ZNSt3__118__unwrap_iter_implINS_16reverse_iteratorIPP19MouseCallbackParamsEELb0EE8__unwrapB8ue170006ES5_, symObjAddr: 0x5D8C, symBinAddr: 0x10001D074, symSize: 0x24 }
  - { offsetInCU: 0x128EB, offset: 0x5C971, size: 0x8, addend: 0x0, symName: __ZNSt3__14pairINS_16reverse_iteratorIPP19MouseCallbackParamsEES5_EC1B8ue170006IS5_S5_LPv0EEEOT_OT0_, symObjAddr: 0x5DB0, symBinAddr: 0x10001D098, symSize: 0x3C }
  - { offsetInCU: 0x12949, offset: 0x5C9CF, size: 0x8, addend: 0x0, symName: __ZNSt3__14pairINS_16reverse_iteratorIPP19MouseCallbackParamsEES5_EC2B8ue170006IS5_S5_LPv0EEEOT_OT0_, symObjAddr: 0x5DEC, symBinAddr: 0x10001D0D4, symSize: 0x34 }
  - { offsetInCU: 0x129A7, offset: 0x5CA2D, size: 0x8, addend: 0x0, symName: __ZNSt3__118__unwrap_iter_implINS_16reverse_iteratorIPP19MouseCallbackParamsEELb0EE8__rewrapB8ue170006ES5_S5_, symObjAddr: 0x5E20, symBinAddr: 0x10001D108, symSize: 0x2C }
  - { offsetInCU: 0x129D5, offset: 0x5CA5B, size: 0x8, addend: 0x0, symName: __ZNSt3__116reverse_iteratorIPP19MouseCallbackParamsEC2B8ue170006ES3_, symObjAddr: 0x5E4C, symBinAddr: 0x10001D134, symSize: 0x28 }
  - { offsetInCU: 0x12A0D, offset: 0x5CA93, size: 0x8, addend: 0x0, symName: __ZNSt3__114__split_bufferIP19MouseCallbackParamsRNS_9allocatorIS2_EEED2Ev, symObjAddr: 0x5E74, symBinAddr: 0x10001D15C, symSize: 0x8C }
  - { offsetInCU: 0x12A39, offset: 0x5CABF, size: 0x8, addend: 0x0, symName: __ZNSt3__114__split_bufferIP19MouseCallbackParamsRNS_9allocatorIS2_EEE5clearB8ue170006Ev, symObjAddr: 0x5F00, symBinAddr: 0x10001D1E8, symSize: 0x28 }
  - { offsetInCU: 0x12A5F, offset: 0x5CAE5, size: 0x8, addend: 0x0, symName: __ZNKSt3__114__split_bufferIP19MouseCallbackParamsRNS_9allocatorIS2_EEE8capacityB8ue170006Ev, symObjAddr: 0x5F5C, symBinAddr: 0x10001D210, symSize: 0x40 }
  - { offsetInCU: 0x12A85, offset: 0x5CB0B, size: 0x8, addend: 0x0, symName: __ZNSt3__114__split_bufferIP19MouseCallbackParamsRNS_9allocatorIS2_EEE17__destruct_at_endB8ue170006EPS2_, symObjAddr: 0x5F9C, symBinAddr: 0x10001D250, symSize: 0x2C }
  - { offsetInCU: 0x12AB9, offset: 0x5CB3F, size: 0x8, addend: 0x0, symName: __ZNSt3__114__split_bufferIP19MouseCallbackParamsRNS_9allocatorIS2_EEE17__destruct_at_endB8ue170006EPS2_NS_17integral_constantIbLb0EEE, symObjAddr: 0x5FC8, symBinAddr: 0x10001D27C, symSize: 0x80 }
  - { offsetInCU: 0x12AFA, offset: 0x5CB80, size: 0x8, addend: 0x0, symName: __ZNKSt3__114__split_bufferIP19MouseCallbackParamsRNS_9allocatorIS2_EEE9__end_capB8ue170006Ev, symObjAddr: 0x60C8, symBinAddr: 0x10001D2FC, symSize: 0x28 }
  - { offsetInCU: 0x12B20, offset: 0x5CBA6, size: 0x8, addend: 0x0, symName: __ZNKSt3__117__compressed_pairIPP19MouseCallbackParamsRNS_9allocatorIS2_EEE5firstB8ue170006Ev, symObjAddr: 0x60F0, symBinAddr: 0x10001D324, symSize: 0x24 }
  - { offsetInCU: 0x12B46, offset: 0x5CBCC, size: 0x8, addend: 0x0, symName: __ZNSt3__16vectorI9DataPointNS_9allocatorIS1_EEE9__end_capB8ue170006Ev, symObjAddr: 0x6114, symBinAddr: 0x10001D348, symSize: 0x28 }
  - { offsetInCU: 0x12B6C, offset: 0x5CBF2, size: 0x8, addend: 0x0, symName: __ZNSt3__16vectorI9DataPointNS_9allocatorIS1_EEE22__construct_one_at_endB8ue170006IJRKS1_EEEvDpOT_, symObjAddr: 0x613C, symBinAddr: 0x10001D370, symSize: 0x90 }
  - { offsetInCU: 0x12BBB, offset: 0x5CC41, size: 0x8, addend: 0x0, symName: __ZNSt3__16vectorI9DataPointNS_9allocatorIS1_EEE21__push_back_slow_pathIRKS1_EEvOT_, symObjAddr: 0x61CC, symBinAddr: 0x10001D400, symSize: 0xD8 }
  - { offsetInCU: 0x12C19, offset: 0x5CC9F, size: 0x8, addend: 0x0, symName: __ZNSt3__117__compressed_pairIP9DataPointNS_9allocatorIS1_EEE5firstB8ue170006Ev, symObjAddr: 0x62A4, symBinAddr: 0x10001D4D8, symSize: 0x24 }
  - { offsetInCU: 0x12C3F, offset: 0x5CCC5, size: 0x8, addend: 0x0, symName: __ZNSt3__122__compressed_pair_elemIP9DataPointLi0ELb0EE5__getB8ue170006Ev, symObjAddr: 0x62C8, symBinAddr: 0x10001D4FC, symSize: 0x14 }
  - { offsetInCU: 0x12C7E, offset: 0x5CD04, size: 0x8, addend: 0x0, symName: __ZNSt3__16vectorI9DataPointNS_9allocatorIS1_EEE21_ConstructTransactionC1B8ue170006ERS4_m, symObjAddr: 0x62DC, symBinAddr: 0x10001D510, symSize: 0x3C }
  - { offsetInCU: 0x12CC6, offset: 0x5CD4C, size: 0x8, addend: 0x0, symName: __ZNSt3__116allocator_traitsINS_9allocatorI9DataPointEEE9constructB8ue170006IS2_JRKS2_EvEEvRS3_PT_DpOT0_, symObjAddr: 0x6318, symBinAddr: 0x10001D54C, symSize: 0x34 }
  - { offsetInCU: 0x12D1D, offset: 0x5CDA3, size: 0x8, addend: 0x0, symName: __ZNSt3__16vectorI9DataPointNS_9allocatorIS1_EEE21_ConstructTransactionD1B8ue170006Ev, symObjAddr: 0x634C, symBinAddr: 0x10001D580, symSize: 0x2C }
  - { offsetInCU: 0x12D47, offset: 0x5CDCD, size: 0x8, addend: 0x0, symName: __ZNSt3__16vectorI9DataPointNS_9allocatorIS1_EEE21_ConstructTransactionC2B8ue170006ERS4_m, symObjAddr: 0x6378, symBinAddr: 0x10001D5AC, symSize: 0x4C }
  - { offsetInCU: 0x12D8F, offset: 0x5CE15, size: 0x8, addend: 0x0, symName: __ZNSt3__19allocatorI9DataPointE9constructB8ue170006IS1_JRKS1_EEEvPT_DpOT0_, symObjAddr: 0x63C4, symBinAddr: 0x10001D5F8, symSize: 0x30 }
  - { offsetInCU: 0x12DE5, offset: 0x5CE6B, size: 0x8, addend: 0x0, symName: __ZNSt3__16vectorI9DataPointNS_9allocatorIS1_EEE21_ConstructTransactionD2B8ue170006Ev, symObjAddr: 0x63F4, symBinAddr: 0x10001D628, symSize: 0x20 }
  - { offsetInCU: 0x12E0F, offset: 0x5CE95, size: 0x8, addend: 0x0, symName: __ZNKSt3__16vectorI9DataPointNS_9allocatorIS1_EEE11__recommendB8ue170006Em, symObjAddr: 0x6414, symBinAddr: 0x10001D648, symSize: 0xB4 }
  - { offsetInCU: 0x12E64, offset: 0x5CEEA, size: 0x8, addend: 0x0, symName: __ZNSt3__114__split_bufferI9DataPointRNS_9allocatorIS1_EEEC1EmmS4_, symObjAddr: 0x64C8, symBinAddr: 0x10001D6FC, symSize: 0x44 }
  - { offsetInCU: 0x12EBA, offset: 0x5CF40, size: 0x8, addend: 0x0, symName: __ZNSt3__114__split_bufferI9DataPointRNS_9allocatorIS1_EEED1Ev, symObjAddr: 0x661C, symBinAddr: 0x10001D850, symSize: 0x2C }
  - { offsetInCU: 0x12EE6, offset: 0x5CF6C, size: 0x8, addend: 0x0, symName: __ZNKSt3__16vectorI9DataPointNS_9allocatorIS1_EEE8max_sizeEv, symObjAddr: 0x6648, symBinAddr: 0x10001D87C, symSize: 0x60 }
  - { offsetInCU: 0x12F0E, offset: 0x5CF94, size: 0x8, addend: 0x0, symName: __ZNKSt3__16vectorI9DataPointNS_9allocatorIS1_EEE20__throw_length_errorB8ue170006Ev, symObjAddr: 0x66A8, symBinAddr: 0x10001D8DC, symSize: 0x1C }
  - { offsetInCU: 0x12F3E, offset: 0x5CFC4, size: 0x8, addend: 0x0, symName: __ZNSt3__116allocator_traitsINS_9allocatorI9DataPointEEE8max_sizeB8ue170006IS3_vEEmRKS3_, symObjAddr: 0x66C4, symBinAddr: 0x10001D8F8, symSize: 0x24 }
  - { offsetInCU: 0x12F6C, offset: 0x5CFF2, size: 0x8, addend: 0x0, symName: __ZNKSt3__16vectorI9DataPointNS_9allocatorIS1_EEE7__allocB8ue170006Ev, symObjAddr: 0x66E8, symBinAddr: 0x10001D91C, symSize: 0x28 }
  - { offsetInCU: 0x12F92, offset: 0x5D018, size: 0x8, addend: 0x0, symName: __ZNKSt3__19allocatorI9DataPointE8max_sizeB8ue170006Ev, symObjAddr: 0x6710, symBinAddr: 0x10001D944, symSize: 0x18 }
  - { offsetInCU: 0x12FB8, offset: 0x5D03E, size: 0x8, addend: 0x0, symName: __ZNKSt3__117__compressed_pairIP9DataPointNS_9allocatorIS1_EEE6secondB8ue170006Ev, symObjAddr: 0x6728, symBinAddr: 0x10001D95C, symSize: 0x24 }
  - { offsetInCU: 0x12FDE, offset: 0x5D064, size: 0x8, addend: 0x0, symName: __ZNKSt3__122__compressed_pair_elemINS_9allocatorI9DataPointEELi1ELb1EE5__getB8ue170006Ev, symObjAddr: 0x674C, symBinAddr: 0x10001D980, symSize: 0x14 }
  - { offsetInCU: 0x13004, offset: 0x5D08A, size: 0x8, addend: 0x0, symName: __ZNSt3__114__split_bufferI9DataPointRNS_9allocatorIS1_EEEC2EmmS4_, symObjAddr: 0x6760, symBinAddr: 0x10001D994, symSize: 0xE0 }
  - { offsetInCU: 0x13078, offset: 0x5D0FE, size: 0x8, addend: 0x0, symName: __ZNSt3__117__compressed_pairIP9DataPointRNS_9allocatorIS1_EEEC1B8ue170006IDnS5_EEOT_OT0_, symObjAddr: 0x6840, symBinAddr: 0x10001DA74, symSize: 0x3C }
  - { offsetInCU: 0x130D0, offset: 0x5D156, size: 0x8, addend: 0x0, symName: __ZNSt3__114__split_bufferI9DataPointRNS_9allocatorIS1_EEE7__allocB8ue170006Ev, symObjAddr: 0x68BC, symBinAddr: 0x10001DAF0, symSize: 0x28 }
  - { offsetInCU: 0x130F6, offset: 0x5D17C, size: 0x8, addend: 0x0, symName: __ZNSt3__114__split_bufferI9DataPointRNS_9allocatorIS1_EEE9__end_capB8ue170006Ev, symObjAddr: 0x68E4, symBinAddr: 0x10001DB18, symSize: 0x28 }
  - { offsetInCU: 0x1311C, offset: 0x5D1A2, size: 0x8, addend: 0x0, symName: __ZNSt3__117__compressed_pairIP9DataPointRNS_9allocatorIS1_EEEC2B8ue170006IDnS5_EEOT_OT0_, symObjAddr: 0x690C, symBinAddr: 0x10001DB40, symSize: 0x48 }
  - { offsetInCU: 0x13174, offset: 0x5D1FA, size: 0x8, addend: 0x0, symName: __ZNSt3__122__compressed_pair_elemIRNS_9allocatorI9DataPointEELi1ELb0EEC2B8ue170006IS4_vEEOT_, symObjAddr: 0x6954, symBinAddr: 0x10001DB88, symSize: 0x20 }
  - { offsetInCU: 0x131B6, offset: 0x5D23C, size: 0x8, addend: 0x0, symName: __ZNSt3__19allocatorI9DataPointE8allocateB8ue170006Em, symObjAddr: 0x6974, symBinAddr: 0x10001DBA8, symSize: 0x5C }
  - { offsetInCU: 0x131EA, offset: 0x5D270, size: 0x8, addend: 0x0, symName: __ZNSt3__117__compressed_pairIP9DataPointRNS_9allocatorIS1_EEE6secondB8ue170006Ev, symObjAddr: 0x69D0, symBinAddr: 0x10001DC04, symSize: 0x28 }
  - { offsetInCU: 0x13210, offset: 0x5D296, size: 0x8, addend: 0x0, symName: __ZNSt3__122__compressed_pair_elemIRNS_9allocatorI9DataPointEELi1ELb0EE5__getB8ue170006Ev, symObjAddr: 0x69F8, symBinAddr: 0x10001DC2C, symSize: 0x18 }
  - { offsetInCU: 0x13236, offset: 0x5D2BC, size: 0x8, addend: 0x0, symName: __ZNSt3__117__compressed_pairIP9DataPointRNS_9allocatorIS1_EEE5firstB8ue170006Ev, symObjAddr: 0x6A10, symBinAddr: 0x10001DC44, symSize: 0x24 }
  - { offsetInCU: 0x1325C, offset: 0x5D2E2, size: 0x8, addend: 0x0, symName: __ZNSt3__116reverse_iteratorIP9DataPointEC1B8ue170006ES2_, symObjAddr: 0x6AAC, symBinAddr: 0x10001DCE0, symSize: 0x34 }
  - { offsetInCU: 0x13294, offset: 0x5D31A, size: 0x8, addend: 0x0, symName: __ZNKSt3__116reverse_iteratorIP9DataPointE4baseB8ue170006Ev, symObjAddr: 0x6AE0, symBinAddr: 0x10001DD14, symSize: 0x18 }
  - { offsetInCU: 0x132BA, offset: 0x5D340, size: 0x8, addend: 0x0, symName: __ZNKSt3__16vectorI9DataPointNS_9allocatorIS1_EEE14__annotate_newB8ue170006Em, symObjAddr: 0x6B34, symBinAddr: 0x10001DD68, symSize: 0xC8 }
  - { offsetInCU: 0x13308, offset: 0x5D38E, size: 0x8, addend: 0x0, symName: __ZNKSt3__111__move_loopINS_17_ClassicAlgPolicyEEclB8ue170006INS_16reverse_iteratorIP9DataPointEES7_S7_EENS_4pairIT_T1_EES9_T0_SA_, symObjAddr: 0x6EEC, symBinAddr: 0x10001E120, symSize: 0xA8 }
  - { offsetInCU: 0x13378, offset: 0x5D3FE, size: 0x8, addend: 0x0, symName: __ZNSt3__18_IterOpsINS_17_ClassicAlgPolicyEE11__iter_moveB8ue170006IRNS_16reverse_iteratorIP9DataPointEEEENS_9enable_ifIXsr12is_referenceIDTdeclsr3stdE7declvalIRT_EEEEE5valueEDTclsr3stdE4movedeclsr3stdE7declvalISB_EEEEE4typeEOSA_, symObjAddr: 0x7128, symBinAddr: 0x10001E35C, symSize: 0x28 }
  - { offsetInCU: 0x133A4, offset: 0x5D42A, size: 0x8, addend: 0x0, symName: __ZNKSt3__116reverse_iteratorIP9DataPointEdeB8ue170006Ev, symObjAddr: 0x7150, symBinAddr: 0x10001E384, symSize: 0x28 }
  - { offsetInCU: 0x133D8, offset: 0x5D45E, size: 0x8, addend: 0x0, symName: __ZNSt3__116reverse_iteratorIP9DataPointEppB8ue170006Ev, symObjAddr: 0x7178, symBinAddr: 0x10001E3AC, symSize: 0x20 }
  - { offsetInCU: 0x133FE, offset: 0x5D484, size: 0x8, addend: 0x0, symName: __ZNSt3__18_IterOpsINS_17_ClassicAlgPolicyEE25__validate_iter_referenceB8ue170006IRNS_16reverse_iteratorIP9DataPointEEEEvv, symObjAddr: 0x7198, symBinAddr: 0x10001E3CC, symSize: 0x4 }
  - { offsetInCU: 0x1341C, offset: 0x5D4A2, size: 0x8, addend: 0x0, symName: __ZNSt3__118__unwrap_iter_implINS_16reverse_iteratorIP9DataPointEELb0EE8__unwrapB8ue170006ES4_, symObjAddr: 0x719C, symBinAddr: 0x10001E3D0, symSize: 0x24 }
  - { offsetInCU: 0x13444, offset: 0x5D4CA, size: 0x8, addend: 0x0, symName: __ZNSt3__14pairINS_16reverse_iteratorIP9DataPointEES4_EC1B8ue170006IS4_S4_LPv0EEEOT_OT0_, symObjAddr: 0x71C0, symBinAddr: 0x10001E3F4, symSize: 0x3C }
  - { offsetInCU: 0x134A2, offset: 0x5D528, size: 0x8, addend: 0x0, symName: __ZNSt3__14pairINS_16reverse_iteratorIP9DataPointEES4_EC2B8ue170006IS4_S4_LPv0EEEOT_OT0_, symObjAddr: 0x71FC, symBinAddr: 0x10001E430, symSize: 0x34 }
  - { offsetInCU: 0x13500, offset: 0x5D586, size: 0x8, addend: 0x0, symName: __ZNSt3__118__unwrap_iter_implINS_16reverse_iteratorIP9DataPointEELb0EE8__rewrapB8ue170006ES4_S4_, symObjAddr: 0x7230, symBinAddr: 0x10001E464, symSize: 0x2C }
  - { offsetInCU: 0x1352E, offset: 0x5D5B4, size: 0x8, addend: 0x0, symName: __ZNSt3__116reverse_iteratorIP9DataPointEC2B8ue170006ES2_, symObjAddr: 0x725C, symBinAddr: 0x10001E490, symSize: 0x28 }
  - { offsetInCU: 0x13566, offset: 0x5D5EC, size: 0x8, addend: 0x0, symName: __ZNSt3__114__split_bufferI9DataPointRNS_9allocatorIS1_EEED2Ev, symObjAddr: 0x7284, symBinAddr: 0x10001E4B8, symSize: 0x8C }
  - { offsetInCU: 0x13592, offset: 0x5D618, size: 0x8, addend: 0x0, symName: __ZNSt3__114__split_bufferI9DataPointRNS_9allocatorIS1_EEE5clearB8ue170006Ev, symObjAddr: 0x7310, symBinAddr: 0x10001E544, symSize: 0x28 }
  - { offsetInCU: 0x135B8, offset: 0x5D63E, size: 0x8, addend: 0x0, symName: __ZNKSt3__114__split_bufferI9DataPointRNS_9allocatorIS1_EEE8capacityB8ue170006Ev, symObjAddr: 0x7338, symBinAddr: 0x10001E56C, symSize: 0x40 }
  - { offsetInCU: 0x135DE, offset: 0x5D664, size: 0x8, addend: 0x0, symName: __ZNSt3__114__split_bufferI9DataPointRNS_9allocatorIS1_EEE17__destruct_at_endB8ue170006EPS1_, symObjAddr: 0x7378, symBinAddr: 0x10001E5AC, symSize: 0x2C }
  - { offsetInCU: 0x13612, offset: 0x5D698, size: 0x8, addend: 0x0, symName: __ZNSt3__114__split_bufferI9DataPointRNS_9allocatorIS1_EEE17__destruct_at_endB8ue170006EPS1_NS_17integral_constantIbLb0EEE, symObjAddr: 0x73A4, symBinAddr: 0x10001E5D8, symSize: 0x80 }
  - { offsetInCU: 0x13653, offset: 0x5D6D9, size: 0x8, addend: 0x0, symName: __ZNKSt3__114__split_bufferI9DataPointRNS_9allocatorIS1_EEE9__end_capB8ue170006Ev, symObjAddr: 0x7424, symBinAddr: 0x10001E658, symSize: 0x28 }
  - { offsetInCU: 0x13679, offset: 0x5D6FF, size: 0x8, addend: 0x0, symName: __ZNKSt3__117__compressed_pairIP9DataPointRNS_9allocatorIS1_EEE5firstB8ue170006Ev, symObjAddr: 0x744C, symBinAddr: 0x10001E680, symSize: 0x24 }
  - { offsetInCU: 0x1369F, offset: 0x5D725, size: 0x8, addend: 0x0, symName: __ZNSt3__111__wrap_iterIPcEppB8ue170006Ev, symObjAddr: 0x751C, symBinAddr: 0x10001E750, symSize: 0x20 }
  - { offsetInCU: 0x136C5, offset: 0x5D74B, size: 0x8, addend: 0x0, symName: __ZNKSt3__111__wrap_iterIPcEdeB8ue170006Ev, symObjAddr: 0x753C, symBinAddr: 0x10001E770, symSize: 0x18 }
  - { offsetInCU: 0x136EB, offset: 0x5D771, size: 0x8, addend: 0x0, symName: __ZNSt3__118__unwrap_iter_implINS_11__wrap_iterIPcEELb1EE8__rewrapB8ue170006ES3_S2_, symObjAddr: 0x7644, symBinAddr: 0x10001E878, symSize: 0x54 }
  - { offsetInCU: 0x1371C, offset: 0x5D7A2, size: 0x8, addend: 0x0, symName: __ZNKSt3__111__wrap_iterIPcEplB8ue170006El, symObjAddr: 0x7698, symBinAddr: 0x10001E8CC, symSize: 0x3C }
  - { offsetInCU: 0x1375E, offset: 0x5D7E4, size: 0x8, addend: 0x0, symName: __ZNSt3__111__wrap_iterIPcEpLB8ue170006El, symObjAddr: 0x76F8, symBinAddr: 0x10001E92C, symSize: 0x28 }
  - { offsetInCU: 0x13797, offset: 0x5D81D, size: 0x8, addend: 0x0, symName: __ZNSt3__119__to_address_helperINS_11__wrap_iterIPcEEvE6__callB8ue170006ERKS3_, symObjAddr: 0x7720, symBinAddr: 0x10001E954, symSize: 0x30 }
  - { offsetInCU: 0x137BA, offset: 0x5D840, size: 0x8, addend: 0x0, symName: __ZNSt3__114pointer_traitsINS_11__wrap_iterIPcEEE10to_addressB8ue170006ES3_, symObjAddr: 0x7750, symBinAddr: 0x10001E984, symSize: 0x2C }
  - { offsetInCU: 0x137DD, offset: 0x5D863, size: 0x8, addend: 0x0, symName: __ZNKSt3__111__wrap_iterIPcE4baseB8ue170006Ev, symObjAddr: 0x7790, symBinAddr: 0x10001E9C4, symSize: 0x18 }
  - { offsetInCU: 0x13803, offset: 0x5D889, size: 0x8, addend: 0x0, symName: __ZNSt3__118__unwrap_iter_implINS_11__wrap_iterIPcEELb1EE8__unwrapB8ue170006ES3_, symObjAddr: 0x77E8, symBinAddr: 0x10001EA1C, symSize: 0x28 }
  - { offsetInCU: 0x13826, offset: 0x5D8AC, size: 0x8, addend: 0x0, symName: __ZNKSt3__111__wrap_iterIPKcE4baseB8ue170006Ev, symObjAddr: 0x78D8, symBinAddr: 0x10001EB0C, symSize: 0x18 }
  - { offsetInCU: 0x1384C, offset: 0x5D8D2, size: 0x8, addend: 0x0, symName: __ZNSt3__111__wrap_iterIPKcEC2B8ue170006IPcEERKNS0_IT_EEPNS_9enable_ifIXsr14is_convertibleIS6_S2_EE5valueEvE4typeE, symObjAddr: 0x78F0, symBinAddr: 0x10001EB24, symSize: 0x40 }
  - { offsetInCU: 0x13898, offset: 0x5D91E, size: 0x8, addend: 0x0, symName: __ZN2cv7Point3_IfEC2Efff, symObjAddr: 0x7BB0, symBinAddr: 0x10001EB64, symSize: 0x38 }
  - { offsetInCU: 0x138F1, offset: 0x5D977, size: 0x8, addend: 0x0, symName: __ZNSt3__16vectorIN2cv7Point3_IfEENS_9allocatorIS3_EEE22__construct_one_at_endB8ue170006IJS3_EEEvDpOT_, symObjAddr: 0x7C10, symBinAddr: 0x10001EB9C, symSize: 0x90 }
  - { offsetInCU: 0x13940, offset: 0x5D9C6, size: 0x8, addend: 0x0, symName: __ZNSt3__16vectorIN2cv7Point3_IfEENS_9allocatorIS3_EEE21__push_back_slow_pathIS3_EEvOT_, symObjAddr: 0x7CA0, symBinAddr: 0x10001EC2C, symSize: 0xD8 }
  - { offsetInCU: 0x139B7, offset: 0x5DA3D, size: 0x8, addend: 0x0, symName: __ZNSt3__116allocator_traitsINS_9allocatorIN2cv7Point3_IfEEEEE9constructB8ue170006IS4_JS4_EvEEvRS5_PT_DpOT0_, symObjAddr: 0x7DEC, symBinAddr: 0x10001ED04, symSize: 0x34 }
  - { offsetInCU: 0x13A0E, offset: 0x5DA94, size: 0x8, addend: 0x0, symName: __ZNSt3__19allocatorIN2cv7Point3_IfEEE9constructB8ue170006IS3_JS3_EEEvPT_DpOT0_, symObjAddr: 0x7ED4, symBinAddr: 0x10001ED38, symSize: 0x30 }
  - { offsetInCU: 0x13A6E, offset: 0x5DAF4, size: 0x8, addend: 0x0, symName: __ZNSt3__16vectorIN2cv7Point3_IfEENS_9allocatorIS3_EEE11__make_iterB8ue170006EPS3_, symObjAddr: 0x9358, symBinAddr: 0x10001ED68, symSize: 0x30 }
  - { offsetInCU: 0x13AA3, offset: 0x5DB29, size: 0x8, addend: 0x0, symName: __ZNSt3__111__wrap_iterIPN2cv7Point3_IfEEEC1B8ue170006ES4_, symObjAddr: 0x9388, symBinAddr: 0x10001ED98, symSize: 0x34 }
  - { offsetInCU: 0x13ADB, offset: 0x5DB61, size: 0x8, addend: 0x0, symName: __ZNSt3__111__wrap_iterIPN2cv7Point3_IfEEEC2B8ue170006ES4_, symObjAddr: 0x93BC, symBinAddr: 0x10001EDCC, symSize: 0x20 }
  - { offsetInCU: 0x13B13, offset: 0x5DB99, size: 0x8, addend: 0x0, symName: __ZNSt3__16vectorINS_12basic_stringIcNS_11char_traitsIcEENS_9allocatorIcEEEENS4_IS6_EEEC2B8ue170006Ev, symObjAddr: 0x93DC, symBinAddr: 0x10001EDEC, symSize: 0x4C }
  - { offsetInCU: 0x13B3D, offset: 0x5DBC3, size: 0x8, addend: 0x0, symName: __ZNSt3__117__compressed_pairIPNS_12basic_stringIcNS_11char_traitsIcEENS_9allocatorIcEEEENS4_IS6_EEEC1B8ue170006IDnNS_18__default_init_tagEEEOT_OT0_, symObjAddr: 0x9428, symBinAddr: 0x10001EE38, symSize: 0x3C }
  - { offsetInCU: 0x13B95, offset: 0x5DC1B, size: 0x8, addend: 0x0, symName: __ZNSt3__117__compressed_pairIPNS_12basic_stringIcNS_11char_traitsIcEENS_9allocatorIcEEEENS4_IS6_EEEC2B8ue170006IDnNS_18__default_init_tagEEEOT_OT0_, symObjAddr: 0x9464, symBinAddr: 0x10001EE74, symSize: 0x40 }
  - { offsetInCU: 0x13BED, offset: 0x5DC73, size: 0x8, addend: 0x0, symName: __ZNSt3__122__compressed_pair_elemIPNS_12basic_stringIcNS_11char_traitsIcEENS_9allocatorIcEEEELi0ELb0EEC2B8ue170006IDnvEEOT_, symObjAddr: 0x94A4, symBinAddr: 0x10001EEB4, symSize: 0x1C }
  - { offsetInCU: 0x13C2F, offset: 0x5DCB5, size: 0x8, addend: 0x0, symName: __ZNSt3__122__compressed_pair_elemINS_9allocatorINS_12basic_stringIcNS_11char_traitsIcEENS1_IcEEEEEELi1ELb1EEC2B8ue170006ENS_18__default_init_tagE, symObjAddr: 0x94C0, symBinAddr: 0x10001EED0, symSize: 0x2C }
  - { offsetInCU: 0x13C64, offset: 0x5DCEA, size: 0x8, addend: 0x0, symName: __ZNSt3__19allocatorINS_12basic_stringIcNS_11char_traitsIcEENS0_IcEEEEEC2B8ue170006Ev, symObjAddr: 0x94EC, symBinAddr: 0x10001EEFC, symSize: 0x2C }
  - { offsetInCU: 0x13C8E, offset: 0x5DD14, size: 0x8, addend: 0x0, symName: __ZNSt3__116__non_trivial_ifILb1ENS_9allocatorINS_12basic_stringIcNS_11char_traitsIcEENS1_IcEEEEEEEC2B8ue170006Ev, symObjAddr: 0x9518, symBinAddr: 0x10001EF28, symSize: 0x14 }
  - { offsetInCU: 0x13CB8, offset: 0x5DD3E, size: 0x8, addend: 0x0, symName: __ZNSt3__16vectorINS_12basic_stringIcNS_11char_traitsIcEENS_9allocatorIcEEEENS4_IS6_EEED2B8ue170006Ev, symObjAddr: 0x952C, symBinAddr: 0x10001EF3C, symSize: 0x44 }
  - { offsetInCU: 0x13CE2, offset: 0x5DD68, size: 0x8, addend: 0x0, symName: __ZNSt3__16vectorINS_12basic_stringIcNS_11char_traitsIcEENS_9allocatorIcEEEENS4_IS6_EEE16__destroy_vectorC1B8ue170006ERS8_, symObjAddr: 0x9570, symBinAddr: 0x10001EF80, symSize: 0x34 }
  - { offsetInCU: 0x13D1B, offset: 0x5DDA1, size: 0x8, addend: 0x0, symName: __ZNSt3__16vectorINS_12basic_stringIcNS_11char_traitsIcEENS_9allocatorIcEEEENS4_IS6_EEE16__destroy_vectorclB8ue170006Ev, symObjAddr: 0x95A4, symBinAddr: 0x10001EFB4, symSize: 0x90 }
  - { offsetInCU: 0x13D41, offset: 0x5DDC7, size: 0x8, addend: 0x0, symName: __ZNSt3__16vectorINS_12basic_stringIcNS_11char_traitsIcEENS_9allocatorIcEEEENS4_IS6_EEE16__destroy_vectorC2B8ue170006ERS8_, symObjAddr: 0x9634, symBinAddr: 0x10001F044, symSize: 0x20 }
  - { offsetInCU: 0x13D7A, offset: 0x5DE00, size: 0x8, addend: 0x0, symName: __ZNSt3__16vectorINS_12basic_stringIcNS_11char_traitsIcEENS_9allocatorIcEEEENS4_IS6_EEE7__clearB8ue170006Ev, symObjAddr: 0x9654, symBinAddr: 0x10001F064, symSize: 0x28 }
  - { offsetInCU: 0x13DA0, offset: 0x5DE26, size: 0x8, addend: 0x0, symName: __ZNKSt3__16vectorINS_12basic_stringIcNS_11char_traitsIcEENS_9allocatorIcEEEENS4_IS6_EEE17__annotate_deleteB8ue170006Ev, symObjAddr: 0x967C, symBinAddr: 0x10001F08C, symSize: 0xD4 }
  - { offsetInCU: 0x13DC6, offset: 0x5DE4C, size: 0x8, addend: 0x0, symName: __ZNSt3__116allocator_traitsINS_9allocatorINS_12basic_stringIcNS_11char_traitsIcEENS1_IcEEEEEEE10deallocateB8ue170006ERS7_PS6_m, symObjAddr: 0x9750, symBinAddr: 0x10001F160, symSize: 0x34 }
  - { offsetInCU: 0x13E08, offset: 0x5DE8E, size: 0x8, addend: 0x0, symName: __ZNSt3__16vectorINS_12basic_stringIcNS_11char_traitsIcEENS_9allocatorIcEEEENS4_IS6_EEE7__allocB8ue170006Ev, symObjAddr: 0x9784, symBinAddr: 0x10001F194, symSize: 0x28 }
  - { offsetInCU: 0x13E2E, offset: 0x5DEB4, size: 0x8, addend: 0x0, symName: __ZNKSt3__16vectorINS_12basic_stringIcNS_11char_traitsIcEENS_9allocatorIcEEEENS4_IS6_EEE8capacityB8ue170006Ev, symObjAddr: 0x97AC, symBinAddr: 0x10001F1BC, symSize: 0x40 }
  - { offsetInCU: 0x13E54, offset: 0x5DEDA, size: 0x8, addend: 0x0, symName: __ZNSt3__16vectorINS_12basic_stringIcNS_11char_traitsIcEENS_9allocatorIcEEEENS4_IS6_EEE22__base_destruct_at_endB8ue170006EPS6_, symObjAddr: 0x97EC, symBinAddr: 0x10001F1FC, symSize: 0x8C }
  - { offsetInCU: 0x13E98, offset: 0x5DF1E, size: 0x8, addend: 0x0, symName: __ZNSt3__116allocator_traitsINS_9allocatorINS_12basic_stringIcNS_11char_traitsIcEENS1_IcEEEEEEE7destroyB8ue170006IS6_vEEvRS7_PT_, symObjAddr: 0x9878, symBinAddr: 0x10001F288, symSize: 0x2C }
  - { offsetInCU: 0x13ED5, offset: 0x5DF5B, size: 0x8, addend: 0x0, symName: __ZNSt3__19allocatorINS_12basic_stringIcNS_11char_traitsIcEENS0_IcEEEEE7destroyB8ue170006EPS5_, symObjAddr: 0x98B8, symBinAddr: 0x10001F2C8, symSize: 0x28 }
  - { offsetInCU: 0x13F09, offset: 0x5DF8F, size: 0x8, addend: 0x0, symName: __ZNKSt3__16vectorINS_12basic_stringIcNS_11char_traitsIcEENS_9allocatorIcEEEENS4_IS6_EEE31__annotate_contiguous_containerB8ue170006EPKvSA_SA_SA_, symObjAddr: 0x98E0, symBinAddr: 0x10001F2F0, symSize: 0x20 }
  - { offsetInCU: 0x13F5B, offset: 0x5DFE1, size: 0x8, addend: 0x0, symName: __ZNKSt3__16vectorINS_12basic_stringIcNS_11char_traitsIcEENS_9allocatorIcEEEENS4_IS6_EEE4dataB8ue170006Ev, symObjAddr: 0x9900, symBinAddr: 0x10001F310, symSize: 0x28 }
  - { offsetInCU: 0x13F81, offset: 0x5E007, size: 0x8, addend: 0x0, symName: __ZNKSt3__16vectorINS_12basic_stringIcNS_11char_traitsIcEENS_9allocatorIcEEEENS4_IS6_EEE4sizeB8ue170006Ev, symObjAddr: 0x9928, symBinAddr: 0x10001F338, symSize: 0x28 }
  - { offsetInCU: 0x13FA7, offset: 0x5E02D, size: 0x8, addend: 0x0, symName: __ZNSt3__19allocatorINS_12basic_stringIcNS_11char_traitsIcEENS0_IcEEEEE10deallocateB8ue170006EPS5_m, symObjAddr: 0x9950, symBinAddr: 0x10001F360, symSize: 0x44 }
  - { offsetInCU: 0x13FE9, offset: 0x5E06F, size: 0x8, addend: 0x0, symName: __ZNSt3__117__compressed_pairIPNS_12basic_stringIcNS_11char_traitsIcEENS_9allocatorIcEEEENS4_IS6_EEE6secondB8ue170006Ev, symObjAddr: 0x9994, symBinAddr: 0x10001F3A4, symSize: 0x24 }
  - { offsetInCU: 0x1400F, offset: 0x5E095, size: 0x8, addend: 0x0, symName: __ZNSt3__122__compressed_pair_elemINS_9allocatorINS_12basic_stringIcNS_11char_traitsIcEENS1_IcEEEEEELi1ELb1EE5__getB8ue170006Ev, symObjAddr: 0x99B8, symBinAddr: 0x10001F3C8, symSize: 0x14 }
  - { offsetInCU: 0x14035, offset: 0x5E0BB, size: 0x8, addend: 0x0, symName: __ZNKSt3__16vectorINS_12basic_stringIcNS_11char_traitsIcEENS_9allocatorIcEEEENS4_IS6_EEE9__end_capB8ue170006Ev, symObjAddr: 0x99CC, symBinAddr: 0x10001F3DC, symSize: 0x28 }
  - { offsetInCU: 0x1405B, offset: 0x5E0E1, size: 0x8, addend: 0x0, symName: __ZNKSt3__117__compressed_pairIPNS_12basic_stringIcNS_11char_traitsIcEENS_9allocatorIcEEEENS4_IS6_EEE5firstB8ue170006Ev, symObjAddr: 0x99F4, symBinAddr: 0x10001F404, symSize: 0x24 }
  - { offsetInCU: 0x14081, offset: 0x5E107, size: 0x8, addend: 0x0, symName: __ZNKSt3__122__compressed_pair_elemIPNS_12basic_stringIcNS_11char_traitsIcEENS_9allocatorIcEEEELi0ELb0EE5__getB8ue170006Ev, symObjAddr: 0x9A18, symBinAddr: 0x10001F428, symSize: 0x14 }
  - { offsetInCU: 0x140A7, offset: 0x5E12D, size: 0x8, addend: 0x0, symName: __ZNSt3__16vectorINS_12basic_stringIcNS_11char_traitsIcEENS_9allocatorIcEEEENS4_IS6_EEE11__make_iterB8ue170006EPS6_, symObjAddr: 0x9A2C, symBinAddr: 0x10001F43C, symSize: 0x30 }
  - { offsetInCU: 0x140DC, offset: 0x5E162, size: 0x8, addend: 0x0, symName: __ZNSt3__111__wrap_iterIPNS_12basic_stringIcNS_11char_traitsIcEENS_9allocatorIcEEEEEC1B8ue170006ES7_, symObjAddr: 0x9A5C, symBinAddr: 0x10001F46C, symSize: 0x34 }
  - { offsetInCU: 0x14114, offset: 0x5E19A, size: 0x8, addend: 0x0, symName: __ZNSt3__111__wrap_iterIPNS_12basic_stringIcNS_11char_traitsIcEENS_9allocatorIcEEEEEC2B8ue170006ES7_, symObjAddr: 0x9A90, symBinAddr: 0x10001F4A0, symSize: 0x20 }
  - { offsetInCU: 0x1414C, offset: 0x5E1D2, size: 0x8, addend: 0x0, symName: __ZNSt3__16vectorI9DataPointNS_9allocatorIS1_EEE19__copy_assign_allocB8ue170006ERKS4_, symObjAddr: 0x9AB0, symBinAddr: 0x10001F4C0, symSize: 0x2C }
  - { offsetInCU: 0x14181, offset: 0x5E207, size: 0x8, addend: 0x0, symName: __ZNSt3__16vectorI9DataPointNS_9allocatorIS1_EEE6assignIPS1_Li0EEEvT_S7_, symObjAddr: 0x9ADC, symBinAddr: 0x10001F4EC, symSize: 0x5C }
  - { offsetInCU: 0x141D6, offset: 0x5E25C, size: 0x8, addend: 0x0, symName: __ZNSt3__16vectorI9DataPointNS_9allocatorIS1_EEE19__copy_assign_allocB8ue170006ERKS4_NS_17integral_constantIbLb0EEE, symObjAddr: 0x9B38, symBinAddr: 0x10001F548, symSize: 0x14 }
  - { offsetInCU: 0x14212, offset: 0x5E298, size: 0x8, addend: 0x0, symName: __ZNSt3__16vectorI9DataPointNS_9allocatorIS1_EEE18__assign_with_sizeB8ue170006IPS1_S6_EEvT_T0_l, symObjAddr: 0x9B4C, symBinAddr: 0x10001F55C, symSize: 0x164 }
  - { offsetInCU: 0x142C4, offset: 0x5E34A, size: 0x8, addend: 0x0, symName: __ZNSt3__16vectorI9DataPointNS_9allocatorIS1_EEE18__construct_at_endIPS1_S6_EEvT_T0_m, symObjAddr: 0x9D50, symBinAddr: 0x10001F760, symSize: 0x8C }
  - { offsetInCU: 0x1433A, offset: 0x5E3C0, size: 0x8, addend: 0x0, symName: __ZNSt3__16vectorI9DataPointNS_9allocatorIS1_EEE17__destruct_at_endB8ue170006EPS1_, symObjAddr: 0x9E20, symBinAddr: 0x10001F830, symSize: 0x4C }
  - { offsetInCU: 0x1437E, offset: 0x5E404, size: 0x8, addend: 0x0, symName: __ZNSt3__16vectorI9DataPointNS_9allocatorIS1_EEE13__vdeallocateEv, symObjAddr: 0x9E6C, symBinAddr: 0x10001F87C, symSize: 0x94 }
  - { offsetInCU: 0x143A6, offset: 0x5E42C, size: 0x8, addend: 0x0, symName: __ZNSt3__16vectorI9DataPointNS_9allocatorIS1_EEE11__vallocateB8ue170006Em, symObjAddr: 0x9F00, symBinAddr: 0x10001F910, symSize: 0xB4 }
  - { offsetInCU: 0x14408, offset: 0x5E48E, size: 0x8, addend: 0x0, symName: __ZNSt3__14pairIP9DataPointS2_EC1B8ue170006IS2_S2_LPv0EEEOT_OT0_, symObjAddr: 0xA1E0, symBinAddr: 0x10001FBF0, symSize: 0x3C }
  - { offsetInCU: 0x14466, offset: 0x5E4EC, size: 0x8, addend: 0x0, symName: __ZNSt3__14pairIP9DataPointS2_EC2B8ue170006IS2_S2_LPv0EEEOT_OT0_, symObjAddr: 0xA21C, symBinAddr: 0x10001FC2C, symSize: 0x34 }
  - { offsetInCU: 0x144C4, offset: 0x5E54A, size: 0x8, addend: 0x0, symName: __ZNSt3__118__unwrap_iter_implIP9DataPointLb1EE8__unwrapB8ue170006ES2_, symObjAddr: 0xA250, symBinAddr: 0x10001FC60, symSize: 0x24 }
  - { offsetInCU: 0x144E7, offset: 0x5E56D, size: 0x8, addend: 0x0, symName: __ZNSt3__118__unwrap_iter_implIP9DataPointLb1EE8__rewrapB8ue170006ES2_S2_, symObjAddr: 0xA274, symBinAddr: 0x10001FC84, symSize: 0x58 }
  - { offsetInCU: 0x14522, offset: 0x5E5A8, size: 0x8, addend: 0x0, symName: __ZNKSt3__114__copy_trivialclB8ue170006I9DataPointS2_Li0EEENS_4pairIPT_PT0_EES5_S5_S7_, symObjAddr: 0xA3C4, symBinAddr: 0x10001FDD4, symSize: 0x48 }
  - { offsetInCU: 0x1458A, offset: 0x5E610, size: 0x8, addend: 0x0, symName: __ZNSt3__14pairIP9DataPointS2_EC1B8ue170006IRS2_S2_LPv0EEEOT_OT0_, symObjAddr: 0xA560, symBinAddr: 0x10001FF70, symSize: 0x3C }
  - { offsetInCU: 0x145E8, offset: 0x5E66E, size: 0x8, addend: 0x0, symName: __ZNSt3__14pairIP9DataPointS2_EC2B8ue170006IRS2_S2_LPv0EEEOT_OT0_, symObjAddr: 0xA59C, symBinAddr: 0x10001FFAC, symSize: 0x34 }
  - { offsetInCU: 0x14646, offset: 0x5E6CC, size: 0x8, addend: 0x0, symName: __ZNKSt3__16vectorI9DataPointNS_9allocatorIS1_EEE17__annotate_shrinkB8ue170006Em, symObjAddr: 0xA5D0, symBinAddr: 0x10001FFE0, symSize: 0xD0 }
  - { offsetInCU: 0x1467B, offset: 0x5E701, size: 0x8, addend: 0x0, symName: __ZNSt3__16vectorI9DataPointNS_9allocatorIS1_EEE5clearB8ue170006Ev, symObjAddr: 0xA6A0, symBinAddr: 0x1000200B0, symSize: 0x44 }
  - { offsetInCU: 0x146B0, offset: 0x5E736, size: 0x8, addend: 0x0, symName: __ZNSt3__16vectorIP19MouseCallbackParamsNS_9allocatorIS2_EEEC2ERKS5_, symObjAddr: 0xA70C, symBinAddr: 0x10002011C, symSize: 0x94 }
  - { offsetInCU: 0x146EB, offset: 0x5E771, size: 0x8, addend: 0x0, symName: __ZNSt3__116allocator_traitsINS_9allocatorIP19MouseCallbackParamsEEE37select_on_container_copy_constructionB8ue170006IS4_vvEES4_RKS4_, symObjAddr: 0xA7A0, symBinAddr: 0x1000201B0, symSize: 0x10 }
  - { offsetInCU: 0x1471F, offset: 0x5E7A5, size: 0x8, addend: 0x0, symName: __ZNSt3__117__compressed_pairIPP19MouseCallbackParamsNS_9allocatorIS2_EEEC1B8ue170006IDnS5_EEOT_OT0_, symObjAddr: 0xA7B0, symBinAddr: 0x1000201C0, symSize: 0x3C }
  - { offsetInCU: 0x14777, offset: 0x5E7FD, size: 0x8, addend: 0x0, symName: __ZNSt3__16vectorIP19MouseCallbackParamsNS_9allocatorIS2_EEE16__init_with_sizeB8ue170006IPS2_S7_EEvT_T0_m, symObjAddr: 0xA7EC, symBinAddr: 0x1000201FC, symSize: 0xB8 }
  - { offsetInCU: 0x147EB, offset: 0x5E871, size: 0x8, addend: 0x0, symName: __ZNSt3__117__compressed_pairIPP19MouseCallbackParamsNS_9allocatorIS2_EEEC2B8ue170006IDnS5_EEOT_OT0_, symObjAddr: 0xA8A4, symBinAddr: 0x1000202B4, symSize: 0x44 }
  - { offsetInCU: 0x14843, offset: 0x5E8C9, size: 0x8, addend: 0x0, symName: __ZNSt3__122__compressed_pair_elemINS_9allocatorIP19MouseCallbackParamsEELi1ELb1EEC2B8ue170006IS4_vEEOT_, symObjAddr: 0xA8E8, symBinAddr: 0x1000202F8, symSize: 0x18 }
  - { offsetInCU: 0x14885, offset: 0x5E90B, size: 0x8, addend: 0x0, symName: __ZNSt3__16vectorIP19MouseCallbackParamsNS_9allocatorIS2_EEE11__vallocateB8ue170006Em, symObjAddr: 0xA974, symBinAddr: 0x100020350, symSize: 0xAC }
  - { offsetInCU: 0x148C9, offset: 0x5E94F, size: 0x8, addend: 0x0, symName: __ZNSt3__16vectorIP19MouseCallbackParamsNS_9allocatorIS2_EEE18__construct_at_endIPS2_S7_EEvT_T0_m, symObjAddr: 0xAA20, symBinAddr: 0x1000203FC, symSize: 0x8C }
  - { offsetInCU: 0x1493F, offset: 0x5E9C5, size: 0x8, addend: 0x0, symName: __ZNSt3__128__exception_guard_exceptionsINS_6vectorIP19MouseCallbackParamsNS_9allocatorIS3_EEE16__destroy_vectorEE10__completeB8ue170006Ev, symObjAddr: 0xAAAC, symBinAddr: 0x100020488, symSize: 0x1C }
  - { offsetInCU: 0x14965, offset: 0x5E9EB, size: 0x8, addend: 0x0, symName: __ZNSt3__128__exception_guard_exceptionsINS_6vectorIP19MouseCallbackParamsNS_9allocatorIS3_EEE16__destroy_vectorEED1B8ue170006Ev, symObjAddr: 0xAAC8, symBinAddr: 0x1000204A4, symSize: 0x2C }
  - { offsetInCU: 0x1498F, offset: 0x5EA15, size: 0x8, addend: 0x0, symName: __ZNSt3__128__exception_guard_exceptionsINS_6vectorIP19MouseCallbackParamsNS_9allocatorIS3_EEE16__destroy_vectorEEC1B8ue170006ES7_, symObjAddr: 0xAAF4, symBinAddr: 0x1000204D0, symSize: 0x34 }
  - { offsetInCU: 0x149C7, offset: 0x5EA4D, size: 0x8, addend: 0x0, symName: __ZNSt3__128__exception_guard_exceptionsINS_6vectorIP19MouseCallbackParamsNS_9allocatorIS3_EEE16__destroy_vectorEEC2B8ue170006ES7_, symObjAddr: 0xAB28, symBinAddr: 0x100020504, symSize: 0x24 }
  - { offsetInCU: 0x14A1D, offset: 0x5EAA3, size: 0x8, addend: 0x0, symName: __ZNSt3__14pairIPP19MouseCallbackParamsS3_EC1B8ue170006IS3_S3_LPv0EEEOT_OT0_, symObjAddr: 0xAD1C, symBinAddr: 0x1000206D8, symSize: 0x3C }
  - { offsetInCU: 0x14A7B, offset: 0x5EB01, size: 0x8, addend: 0x0, symName: __ZNSt3__14pairIPP19MouseCallbackParamsS3_EC2B8ue170006IS3_S3_LPv0EEEOT_OT0_, symObjAddr: 0xAD58, symBinAddr: 0x100020714, symSize: 0x34 }
  - { offsetInCU: 0x14AD9, offset: 0x5EB5F, size: 0x8, addend: 0x0, symName: __ZNKSt3__114__copy_trivialclB8ue170006IP19MouseCallbackParamsS3_Li0EEENS_4pairIPT_PT0_EES6_S6_S8_, symObjAddr: 0xAF08, symBinAddr: 0x1000208C4, symSize: 0x48 }
  - { offsetInCU: 0x14B41, offset: 0x5EBC7, size: 0x8, addend: 0x0, symName: __ZNSt3__14pairIPP19MouseCallbackParamsS3_EC1B8ue170006IRS3_S3_LPv0EEEOT_OT0_, symObjAddr: 0xB098, symBinAddr: 0x100020A54, symSize: 0x3C }
  - { offsetInCU: 0x14B9F, offset: 0x5EC25, size: 0x8, addend: 0x0, symName: __ZNSt3__14pairIPP19MouseCallbackParamsS3_EC2B8ue170006IRS3_S3_LPv0EEEOT_OT0_, symObjAddr: 0xB0D4, symBinAddr: 0x100020A90, symSize: 0x34 }
  - { offsetInCU: 0x14BFD, offset: 0x5EC83, size: 0x8, addend: 0x0, symName: __ZNSt3__118__unwrap_iter_implIPP19MouseCallbackParamsLb1EE8__unwrapB8ue170006ES3_, symObjAddr: 0xB108, symBinAddr: 0x100020AC4, symSize: 0x24 }
  - { offsetInCU: 0x14C20, offset: 0x5ECA6, size: 0x8, addend: 0x0, symName: __ZNSt3__118__unwrap_iter_implIPP19MouseCallbackParamsLb1EE8__rewrapB8ue170006ES3_S3_, symObjAddr: 0xB12C, symBinAddr: 0x100020AE8, symSize: 0x50 }
  - { offsetInCU: 0x14C51, offset: 0x5ECD7, size: 0x8, addend: 0x0, symName: __ZNSt3__128__exception_guard_exceptionsINS_6vectorIP19MouseCallbackParamsNS_9allocatorIS3_EEE16__destroy_vectorEED2B8ue170006Ev, symObjAddr: 0xB17C, symBinAddr: 0x100020B38, symSize: 0x50 }
...
